
/home/users/oscar.celis/Workspace/chipyard/fpga/src/main/resources/vc707/fw-demo//build/fw_test.elf:     file format elf64-littleriscv


Disassembly of section .text:

0000000080000000 <_prog_start>:

  .section .text.init
  .option norvc
  .globl _prog_start
_prog_start:
  smp_pause(s1, s2)
    80000000:	00800913          	li	s2,8
    80000004:	30491073          	csrw	mie,s2
    80000008:	00000493          	li	s1,0
    8000000c:	f1402973          	csrr	s2,mhartid
    80000010:	03249863          	bne	s1,s2,80000040 <_prog_start+0x40>
  li sp, (PAYLOAD_DEST + 0xffff000)
    80000014:	00090137          	lui	sp,0x90
    80000018:	fff1011b          	addiw	sp,sp,-1
    8000001c:	00c11113          	slli	sp,sp,0xc
  call main
    80000020:	070000ef          	jal	ra,80000090 <main>
  smp_resume(s1, s2)
    80000024:	020004b7          	lui	s1,0x2000
    80000028:	00100913          	li	s2,1
    8000002c:	0124a023          	sw	s2,0(s1) # 2000000 <_prog_start-0x7e000000>
    80000030:	00448493          	addi	s1,s1,4
    80000034:	02000937          	lui	s2,0x2000
    80000038:	0809091b          	addiw	s2,s2,128
    8000003c:	ff24c6e3          	blt	s1,s2,80000028 <_prog_start+0x28>
    80000040:	10500073          	wfi
    80000044:	34402973          	csrr	s2,mip
    80000048:	00897913          	andi	s2,s2,8
    8000004c:	fe090ae3          	beqz	s2,80000040 <_prog_start+0x40>
    80000050:	020004b7          	lui	s1,0x2000
    80000054:	f1402973          	csrr	s2,mhartid
    80000058:	00291913          	slli	s2,s2,0x2
    8000005c:	00990933          	add	s2,s2,s1
    80000060:	00092023          	sw	zero,0(s2) # 2000000 <_prog_start-0x7e000000>
    80000064:	0004a903          	lw	s2,0(s1) # 2000000 <_prog_start-0x7e000000>
    80000068:	fe091ee3          	bnez	s2,80000064 <_prog_start+0x64>
    8000006c:	00448493          	addi	s1,s1,4
    80000070:	02000937          	lui	s2,0x2000
    80000074:	0809091b          	addiw	s2,s2,128
    80000078:	ff24c6e3          	blt	s1,s2,80000064 <_prog_start+0x64>
  csrr a0, mhartid // hartid for next level bootloader
    8000007c:	f1402573          	csrr	a0,mhartid
  la a1, dtb // dtb address for next level bootloader
    80000080:	00000593          	li	a1,0
  li s1, PAYLOAD_DEST
    80000084:	0010049b          	addiw	s1,zero,1
    80000088:	01f49493          	slli	s1,s1,0x1f
  jr s1
    8000008c:	00048067          	jr	s1

0000000080000090 <main>:
#include "kprintf.h"

#define MAX_CORES 8

int main(void)
{
    80000090:	ff010113          	addi	sp,sp,-16 # 8fff0 <_prog_start-0x7ff70010>
    80000094:	00813023          	sd	s0,0(sp)
    80000098:	00113423          	sd	ra,8(sp)
    REG32(uart, UART_REG_TXCTRL) = UART_TXEN;
    8000009c:	640007b7          	lui	a5,0x64000
    800000a0:	00100713          	li	a4,1
    800000a4:	00e7a423          	sw	a4,8(a5) # 64000008 <_prog_start-0x1bfffff8>
    while(1) {
	    kputs("Hello from the other side");
    800000a8:	00000417          	auipc	s0,0x0
    800000ac:	46040413          	addi	s0,s0,1120 # 80000508 <kprintf+0x21c>
    800000b0:	00040513          	mv	a0,s0
    800000b4:	07c000ef          	jal	ra,80000130 <kputs>
    while(1) {
    800000b8:	ff9ff06f          	j	800000b0 <main+0x20>

00000000800000bc <kread>:
}

void kread(char *s, int count)
{
	char *p = s;
	for (int i = 0; i < count; i++) {
    800000bc:	02b05c63          	blez	a1,800000f4 <kread+0x38>
    800000c0:	fff5861b          	addiw	a2,a1,-1
    800000c4:	02061613          	slli	a2,a2,0x20
    800000c8:	02065613          	srli	a2,a2,0x20
    800000cc:	00160613          	addi	a2,a2,1
    800000d0:	00c50633          	add	a2,a0,a2
{
	int32_t val = -1;
	volatile uint32_t *rx = &REG32(uart, UART_REG_RXFIFO);

	while (val < 0) {
		val = *rx;
    800000d4:	640006b7          	lui	a3,0x64000
		*p++ = kgetc();
    800000d8:	00150513          	addi	a0,a0,1
    800000dc:	0046a783          	lw	a5,4(a3) # 64000004 <_prog_start-0x1bfffffc>
	while (val < 0) {
    800000e0:	02079593          	slli	a1,a5,0x20
		val = *rx;
    800000e4:	0007871b          	sext.w	a4,a5
	while (val < 0) {
    800000e8:	fe05cae3          	bltz	a1,800000dc <kread+0x20>
	}
	
	return val & 0xff;
    800000ec:	fee50fa3          	sb	a4,-1(a0)
	for (int i = 0; i < count; i++) {
    800000f0:	fec514e3          	bne	a0,a2,800000d8 <kread+0x1c>
	}
}
    800000f4:	00008067          	ret

00000000800000f8 <kwrite>:

void kwrite(char *s, int count)
{
	char *p = s;
	for (int i = 0; i < count; i++) {
    800000f8:	02b05a63          	blez	a1,8000012c <kwrite+0x34>
    800000fc:	fff5861b          	addiw	a2,a1,-1
    80000100:	02061613          	slli	a2,a2,0x20
    80000104:	02065613          	srli	a2,a2,0x20
    80000108:	00160613          	addi	a2,a2,1
    8000010c:	00c50633          	add	a2,a0,a2
		__asm__ __volatile__ (
    80000110:	640007b7          	lui	a5,0x64000
		kputc(*p++);
    80000114:	00054703          	lbu	a4,0(a0)
    80000118:	00150513          	addi	a0,a0,1
    8000011c:	40e7a6af          	amoor.w	a3,a4,(a5)
	} while (r < 0);
    80000120:	02069593          	slli	a1,a3,0x20
    80000124:	fe05cce3          	bltz	a1,8000011c <kwrite+0x24>
	for (int i = 0; i < count; i++) {
    80000128:	fec516e3          	bne	a0,a2,80000114 <kwrite+0x1c>
	}
}
    8000012c:	00008067          	ret

0000000080000130 <kputs>:
	for (; (c = *s) != '\0'; s++)
    80000130:	00054703          	lbu	a4,0(a0)
    80000134:	02070063          	beqz	a4,80000154 <kputs+0x24>
		__asm__ __volatile__ (
    80000138:	640007b7          	lui	a5,0x64000
    8000013c:	40e7a6af          	amoor.w	a3,a4,(a5)
	} while (r < 0);
    80000140:	02069613          	slli	a2,a3,0x20
    80000144:	fe064ce3          	bltz	a2,8000013c <kputs+0xc>
    80000148:	00154703          	lbu	a4,1(a0)
    8000014c:	00150513          	addi	a0,a0,1
    80000150:	fe0716e3          	bnez	a4,8000013c <kputs+0xc>
		__asm__ __volatile__ (
    80000154:	640007b7          	lui	a5,0x64000
    80000158:	00a00713          	li	a4,10
    8000015c:	40e7a6af          	amoor.w	a3,a4,(a5)
	} while (r < 0);
    80000160:	02069613          	slli	a2,a3,0x20
    80000164:	fe064ce3          	bltz	a2,8000015c <kputs+0x2c>

void kputs(const char *s)
{
	_kputs(s);
	kputc('\n');
}
    80000168:	00008067          	ret

000000008000016c <kgets>:
		val = *rx;
    8000016c:	640006b7          	lui	a3,0x64000
	for (; (*s = kgetc()) != '\n'; s++);
    80000170:	00a00613          	li	a2,10
    80000174:	0046a783          	lw	a5,4(a3) # 64000004 <_prog_start-0x1bfffffc>
	while (val < 0) {
    80000178:	02079593          	slli	a1,a5,0x20
		val = *rx;
    8000017c:	0007871b          	sext.w	a4,a5
	while (val < 0) {
    80000180:	fe05cae3          	bltz	a1,80000174 <kgets+0x8>
	return val & 0xff;
    80000184:	0ff77713          	andi	a4,a4,255
    80000188:	00e50023          	sb	a4,0(a0)
    8000018c:	00c70663          	beq	a4,a2,80000198 <kgets+0x2c>
    80000190:	00150513          	addi	a0,a0,1
	while (val < 0) {
    80000194:	fe1ff06f          	j	80000174 <kgets+0x8>
	*s = '\0';
    80000198:	00050023          	sb	zero,0(a0)

void kgets(char *s){
	_kgets(s);	
}
    8000019c:	00008067          	ret

00000000800001a0 <_escape_char>:

void _escape_char(const char c){
	switch (c) {
    800001a0:	fde5051b          	addiw	a0,a0,-34
    800001a4:	0ff57513          	andi	a0,a0,255
    800001a8:	05400793          	li	a5,84
    800001ac:	02a7ea63          	bltu	a5,a0,800001e0 <_escape_char+0x40>
    800001b0:	00000717          	auipc	a4,0x0
    800001b4:	37870713          	addi	a4,a4,888 # 80000528 <kprintf+0x23c>
    800001b8:	00251513          	slli	a0,a0,0x2
    800001bc:	00e50533          	add	a0,a0,a4
    800001c0:	00052783          	lw	a5,0(a0)
    800001c4:	00e787b3          	add	a5,a5,a4
    800001c8:	00078067          	jr	a5 # 64000000 <_prog_start-0x1c000000>
		__asm__ __volatile__ (
    800001cc:	640007b7          	lui	a5,0x64000
    800001d0:	00000713          	li	a4,0
    800001d4:	40e7a6af          	amoor.w	a3,a4,(a5)
	} while (r < 0);
    800001d8:	02069613          	slli	a2,a3,0x20
    800001dc:	fe064ce3          	bltz	a2,800001d4 <_escape_char+0x34>
		kputc('\0');
		break;
	default:
		break;
	}
}
    800001e0:	00008067          	ret
		__asm__ __volatile__ (
    800001e4:	640007b7          	lui	a5,0x64000
    800001e8:	00a00713          	li	a4,10
    800001ec:	40e7a6af          	amoor.w	a3,a4,(a5)
	} while (r < 0);
    800001f0:	02069613          	slli	a2,a3,0x20
    800001f4:	fe064ce3          	bltz	a2,800001ec <_escape_char+0x4c>
    800001f8:	00008067          	ret
		__asm__ __volatile__ (
    800001fc:	640007b7          	lui	a5,0x64000
    80000200:	00a00713          	li	a4,10
    80000204:	40e7a6af          	amoor.w	a3,a4,(a5)
	} while (r < 0);
    80000208:	02069613          	slli	a2,a3,0x20
    8000020c:	fe064ce3          	bltz	a2,80000204 <_escape_char+0x64>
    80000210:	00008067          	ret
		__asm__ __volatile__ (
    80000214:	640007b7          	lui	a5,0x64000
    80000218:	00a00713          	li	a4,10
    8000021c:	40e7a6af          	amoor.w	a3,a4,(a5)
	} while (r < 0);
    80000220:	02069613          	slli	a2,a3,0x20
    80000224:	fe064ce3          	bltz	a2,8000021c <_escape_char+0x7c>
    80000228:	00008067          	ret
		__asm__ __volatile__ (
    8000022c:	640007b7          	lui	a5,0x64000
    80000230:	00a00713          	li	a4,10
    80000234:	40e7a6af          	amoor.w	a3,a4,(a5)
	} while (r < 0);
    80000238:	02069613          	slli	a2,a3,0x20
    8000023c:	fe064ce3          	bltz	a2,80000234 <_escape_char+0x94>
    80000240:	00008067          	ret
		__asm__ __volatile__ (
    80000244:	640007b7          	lui	a5,0x64000
    80000248:	00a00713          	li	a4,10
    8000024c:	40e7a6af          	amoor.w	a3,a4,(a5)
	} while (r < 0);
    80000250:	02069613          	slli	a2,a3,0x20
    80000254:	fe064ce3          	bltz	a2,8000024c <_escape_char+0xac>
    80000258:	00008067          	ret
		__asm__ __volatile__ (
    8000025c:	640007b7          	lui	a5,0x64000
    80000260:	00a00713          	li	a4,10
    80000264:	40e7a6af          	amoor.w	a3,a4,(a5)
	} while (r < 0);
    80000268:	02069613          	slli	a2,a3,0x20
    8000026c:	fe064ce3          	bltz	a2,80000264 <_escape_char+0xc4>
    80000270:	00008067          	ret
		__asm__ __volatile__ (
    80000274:	640007b7          	lui	a5,0x64000
    80000278:	00a00713          	li	a4,10
    8000027c:	40e7a6af          	amoor.w	a3,a4,(a5)
	} while (r < 0);
    80000280:	02069613          	slli	a2,a3,0x20
    80000284:	fe064ce3          	bltz	a2,8000027c <_escape_char+0xdc>
    80000288:	00008067          	ret
		__asm__ __volatile__ (
    8000028c:	640007b7          	lui	a5,0x64000
    80000290:	00a00713          	li	a4,10
    80000294:	40e7a6af          	amoor.w	a3,a4,(a5)
	} while (r < 0);
    80000298:	02069613          	slli	a2,a3,0x20
    8000029c:	fe064ce3          	bltz	a2,80000294 <_escape_char+0xf4>
    800002a0:	00008067          	ret
		__asm__ __volatile__ (
    800002a4:	640007b7          	lui	a5,0x64000
    800002a8:	03f00713          	li	a4,63
    800002ac:	40e7a6af          	amoor.w	a3,a4,(a5)
	} while (r < 0);
    800002b0:	02069613          	slli	a2,a3,0x20
    800002b4:	fe064ce3          	bltz	a2,800002ac <_escape_char+0x10c>
    800002b8:	00008067          	ret
		__asm__ __volatile__ (
    800002bc:	640007b7          	lui	a5,0x64000
    800002c0:	02700713          	li	a4,39
    800002c4:	40e7a6af          	amoor.w	a3,a4,(a5)
	} while (r < 0);
    800002c8:	02069613          	slli	a2,a3,0x20
    800002cc:	fe064ce3          	bltz	a2,800002c4 <_escape_char+0x124>
    800002d0:	00008067          	ret
		__asm__ __volatile__ (
    800002d4:	640007b7          	lui	a5,0x64000
    800002d8:	02200713          	li	a4,34
    800002dc:	40e7a6af          	amoor.w	a3,a4,(a5)
	} while (r < 0);
    800002e0:	02069613          	slli	a2,a3,0x20
    800002e4:	fe064ce3          	bltz	a2,800002dc <_escape_char+0x13c>
    800002e8:	00008067          	ret

00000000800002ec <kprintf>:

void kprintf(const char *fmt, ...)
{
    800002ec:	f5010113          	addi	sp,sp,-176
    800002f0:	08e13823          	sd	a4,144(sp)
    800002f4:	06113423          	sd	ra,104(sp)
    800002f8:	06813023          	sd	s0,96(sp)
    800002fc:	04913c23          	sd	s1,88(sp)
    80000300:	05213823          	sd	s2,80(sp)
    80000304:	05313423          	sd	s3,72(sp)
    80000308:	05413023          	sd	s4,64(sp)
    8000030c:	03513c23          	sd	s5,56(sp)
    80000310:	03613823          	sd	s6,48(sp)
    80000314:	03713423          	sd	s7,40(sp)
    80000318:	03813023          	sd	s8,32(sp)
    8000031c:	01913c23          	sd	s9,24(sp)
    80000320:	06b13c23          	sd	a1,120(sp)
    80000324:	08c13023          	sd	a2,128(sp)
    80000328:	08d13423          	sd	a3,136(sp)
    8000032c:	08f13c23          	sd	a5,152(sp)
    80000330:	0b013023          	sd	a6,160(sp)
    80000334:	0b113423          	sd	a7,168(sp)

	va_start(vl, fmt);
	is_format = false;
	is_long = false;
	is_char = false;
	while ((c = *fmt++) != '\0') {
    80000338:	00054783          	lbu	a5,0(a0)
	va_start(vl, fmt);
    8000033c:	07810713          	addi	a4,sp,120
    80000340:	00e13423          	sd	a4,8(sp)
	while ((c = *fmt++) != '\0') {
    80000344:	08078a63          	beqz	a5,800003d8 <kprintf+0xec>
    80000348:	00000493          	li	s1,0
    8000034c:	00050313          	mv	t1,a0
    80000350:	00150b13          	addi	s6,a0,1
    80000354:	00000a13          	li	s4,0
    80000358:	00000993          	li	s3,0
				break;
			}
			is_format = false;
			is_long = false;
			is_char = false;
		} else if (c == '%') {
    8000035c:	02500c13          	li	s8,37
			is_format = true;
		} else if (c == '\\') {
    80000360:	05c00c93          	li	s9,92
		__asm__ __volatile__ (
    80000364:	64000437          	lui	s0,0x64000
    80000368:	01500a93          	li	s5,21
    8000036c:	00000917          	auipc	s2,0x0
    80000370:	31090913          	addi	s2,s2,784 # 8000067c <kprintf+0x390>
					kputc(d < 10 ? '0' + d : 'a' + d - 10);
    80000374:	00900b93          	li	s7,9
		if (is_format) {
    80000378:	02049863          	bnez	s1,800003a8 <kprintf+0xbc>
		} else if (c == '%') {
    8000037c:	17878063          	beq	a5,s8,800004dc <kprintf+0x1f0>
		} else if (c == '\\') {
    80000380:	17978263          	beq	a5,s9,800004e4 <kprintf+0x1f8>
    80000384:	40f4272f          	amoor.w	a4,a5,(s0)
	} while (r < 0);
    80000388:	02071693          	slli	a3,a4,0x20
    8000038c:	fe06cce3          	bltz	a3,80000384 <kprintf+0x98>
	while ((c = *fmt++) != '\0') {
    80000390:	000b4783          	lbu	a5,0(s6)
    80000394:	001b0713          	addi	a4,s6,1
    80000398:	04078063          	beqz	a5,800003d8 <kprintf+0xec>
    8000039c:	000b0313          	mv	t1,s6
    800003a0:	00070b13          	mv	s6,a4
		if (is_format) {
    800003a4:	fc048ce3          	beqz	s1,8000037c <kprintf+0x90>
			switch (c) {
    800003a8:	f9d7879b          	addiw	a5,a5,-99
    800003ac:	0ff7f793          	andi	a5,a5,255
    800003b0:	0afae863          	bltu	s5,a5,80000460 <kprintf+0x174>
    800003b4:	00279793          	slli	a5,a5,0x2
    800003b8:	012787b3          	add	a5,a5,s2
    800003bc:	0007a783          	lw	a5,0(a5) # 64000000 <_prog_start-0x1c000000>
    800003c0:	012787b3          	add	a5,a5,s2
    800003c4:	00078067          	jr	a5
	while ((c = *fmt++) != '\0') {
    800003c8:	000b4783          	lbu	a5,0(s6)
		if (is_format) {
    800003cc:	00048993          	mv	s3,s1
	while ((c = *fmt++) != '\0') {
    800003d0:	001b0713          	addi	a4,s6,1
    800003d4:	fc0794e3          	bnez	a5,8000039c <kprintf+0xb0>
		} else {
			kputc(c);
		}
	}
	va_end(vl);
}
    800003d8:	06813083          	ld	ra,104(sp)
    800003dc:	06013403          	ld	s0,96(sp)
    800003e0:	05813483          	ld	s1,88(sp)
    800003e4:	05013903          	ld	s2,80(sp)
    800003e8:	04813983          	ld	s3,72(sp)
    800003ec:	04013a03          	ld	s4,64(sp)
    800003f0:	03813a83          	ld	s5,56(sp)
    800003f4:	03013b03          	ld	s6,48(sp)
    800003f8:	02813b83          	ld	s7,40(sp)
    800003fc:	02013c03          	ld	s8,32(sp)
    80000400:	01813c83          	ld	s9,24(sp)
    80000404:	0b010113          	addi	sp,sp,176
    80000408:	00008067          	ret
				is_char = true;
    8000040c:	00048a13          	mv	s4,s1
    80000410:	f81ff06f          	j	80000390 <kprintf+0xa4>
				if (is_long) {
    80000414:	00813783          	ld	a5,8(sp)
    80000418:	00878713          	addi	a4,a5,8
    8000041c:	0c099c63          	bnez	s3,800004f4 <kprintf+0x208>
					n = va_arg(vl, unsigned int);
    80000420:	00e13423          	sd	a4,8(sp)
    80000424:	0007e503          	lwu	a0,0(a5)
					i = is_char ? 4 : (sizeof(unsigned int) << 3) - 4;
    80000428:	00400693          	li	a3,4
    8000042c:	000a1463          	bnez	s4,80000434 <kprintf+0x148>
    80000430:	01c00693          	li	a3,28
    80000434:	ffc6e593          	ori	a1,a3,-4
					d = (n >> i) & 0xF;
    80000438:	00d557b3          	srl	a5,a0,a3
    8000043c:	00f7f613          	andi	a2,a5,15
					kputc(d < 10 ? '0' + d : 'a' + d - 10);
    80000440:	05760793          	addi	a5,a2,87
    80000444:	00cbc463          	blt	s7,a2,8000044c <kprintf+0x160>
    80000448:	03060793          	addi	a5,a2,48
		__asm__ __volatile__ (
    8000044c:	40f4272f          	amoor.w	a4,a5,(s0)
	} while (r < 0);
    80000450:	02071613          	slli	a2,a4,0x20
    80000454:	fe064ce3          	bltz	a2,8000044c <kprintf+0x160>
				for (; i >= 0; i -= 4) {
    80000458:	ffc68693          	addi	a3,a3,-4
    8000045c:	fcb69ee3          	bne	a3,a1,80000438 <kprintf+0x14c>
			is_char = false;
    80000460:	00000a13          	li	s4,0
			is_long = false;
    80000464:	00000993          	li	s3,0
			is_format = false;
    80000468:	00000493          	li	s1,0
    8000046c:	f25ff06f          	j	80000390 <kprintf+0xa4>
				kputc(va_arg(vl, int));
    80000470:	00813703          	ld	a4,8(sp)
    80000474:	00074783          	lbu	a5,0(a4)
    80000478:	00870713          	addi	a4,a4,8
    8000047c:	00e13423          	sd	a4,8(sp)
		__asm__ __volatile__ (
    80000480:	40f4272f          	amoor.w	a4,a5,(s0)
	} while (r < 0);
    80000484:	02071693          	slli	a3,a4,0x20
    80000488:	fe06cce3          	bltz	a3,80000480 <kprintf+0x194>
			is_char = false;
    8000048c:	00000a13          	li	s4,0
			is_long = false;
    80000490:	00000993          	li	s3,0
			is_format = false;
    80000494:	00000493          	li	s1,0
    80000498:	ef9ff06f          	j	80000390 <kprintf+0xa4>
				_kputs(va_arg(vl, const char *));
    8000049c:	00813783          	ld	a5,8(sp)
    800004a0:	0007b683          	ld	a3,0(a5)
    800004a4:	00878793          	addi	a5,a5,8
    800004a8:	00f13423          	sd	a5,8(sp)
	for (; (c = *s) != '\0'; s++)
    800004ac:	0006c783          	lbu	a5,0(a3)
    800004b0:	fa0788e3          	beqz	a5,80000460 <kprintf+0x174>
		__asm__ __volatile__ (
    800004b4:	40f4272f          	amoor.w	a4,a5,(s0)
	} while (r < 0);
    800004b8:	02071613          	slli	a2,a4,0x20
    800004bc:	fe064ce3          	bltz	a2,800004b4 <kprintf+0x1c8>
    800004c0:	0016c783          	lbu	a5,1(a3)
    800004c4:	00168693          	addi	a3,a3,1
    800004c8:	fe0796e3          	bnez	a5,800004b4 <kprintf+0x1c8>
			is_char = false;
    800004cc:	00000a13          	li	s4,0
			is_long = false;
    800004d0:	00000993          	li	s3,0
			is_format = false;
    800004d4:	00000493          	li	s1,0
    800004d8:	eb9ff06f          	j	80000390 <kprintf+0xa4>
			is_format = true;
    800004dc:	00100493          	li	s1,1
    800004e0:	eb1ff06f          	j	80000390 <kprintf+0xa4>
			_escape_char(*(fmt++));
    800004e4:	00134503          	lbu	a0,1(t1)
    800004e8:	00230b13          	addi	s6,t1,2
    800004ec:	cb5ff0ef          	jal	ra,800001a0 <_escape_char>
    800004f0:	ea1ff06f          	j	80000390 <kprintf+0xa4>
					n = va_arg(vl, unsigned long);
    800004f4:	0007b503          	ld	a0,0(a5)
    800004f8:	00e13423          	sd	a4,8(sp)
					i = (sizeof(unsigned long) << 3) - 4;
    800004fc:	03c00693          	li	a3,60
    80000500:	f35ff06f          	j	80000434 <kprintf+0x148>
