
/home/users/oscar.celis/Workspace/chipyard/fpga/src/main/resources/vc707/fw-demo//build/fw_test.elf:     file format elf64-littleriscv


Disassembly of section .text:

0000000080000000 <_prog_start>:

  .section .text.init
  .option norvc
  .globl _prog_start
_prog_start:
  smp_pause(s1, s2)
    80000000:	00800913          	li	s2,8
    80000004:	30491073          	csrw	mie,s2
    80000008:	00000493          	li	s1,0
    8000000c:	f1402973          	csrr	s2,mhartid
    80000010:	03249863          	bne	s1,s2,80000040 <_prog_start+0x40>
  li sp, (PAYLOAD_DEST + 0xffff000)
    80000014:	00090137          	lui	sp,0x90
    80000018:	fff1011b          	addiw	sp,sp,-1
    8000001c:	00c11113          	slli	sp,sp,0xc
  call main
    80000020:	070000ef          	jal	ra,80000090 <main>
  smp_resume(s1, s2)
    80000024:	020004b7          	lui	s1,0x2000
    80000028:	00100913          	li	s2,1
    8000002c:	0124a023          	sw	s2,0(s1) # 2000000 <_prog_start-0x7e000000>
    80000030:	00448493          	addi	s1,s1,4
    80000034:	02000937          	lui	s2,0x2000
    80000038:	0809091b          	addiw	s2,s2,128
    8000003c:	ff24c6e3          	blt	s1,s2,80000028 <_prog_start+0x28>
    80000040:	10500073          	wfi
    80000044:	34402973          	csrr	s2,mip
    80000048:	00897913          	andi	s2,s2,8
    8000004c:	fe090ae3          	beqz	s2,80000040 <_prog_start+0x40>
    80000050:	020004b7          	lui	s1,0x2000
    80000054:	f1402973          	csrr	s2,mhartid
    80000058:	00291913          	slli	s2,s2,0x2
    8000005c:	00990933          	add	s2,s2,s1
    80000060:	00092023          	sw	zero,0(s2) # 2000000 <_prog_start-0x7e000000>
    80000064:	0004a903          	lw	s2,0(s1) # 2000000 <_prog_start-0x7e000000>
    80000068:	fe091ee3          	bnez	s2,80000064 <_prog_start+0x64>
    8000006c:	00448493          	addi	s1,s1,4
    80000070:	02000937          	lui	s2,0x2000
    80000074:	0809091b          	addiw	s2,s2,128
    80000078:	ff24c6e3          	blt	s1,s2,80000064 <_prog_start+0x64>
  csrr a0, mhartid // hartid for next level bootloader
    8000007c:	f1402573          	csrr	a0,mhartid
  la a1, dtb // dtb address for next level bootloader
    80000080:	00000593          	li	a1,0
  li s1, PAYLOAD_DEST
    80000084:	0010049b          	addiw	s1,zero,1
    80000088:	01f49493          	slli	s1,s1,0x1f
  jr s1
    8000008c:	00048067          	jr	s1

0000000080000090 <main>:
#include "kprintf.h"

#define MAX_CORES 8

int main(void)
{
    80000090:	ff010113          	addi	sp,sp,-16 # 8fff0 <_prog_start-0x7ff70010>
    80000094:	00813023          	sd	s0,0(sp)
    80000098:	00113423          	sd	ra,8(sp)
    REG32(uart, UART_REG_TXCTRL) = UART_TXEN;
    8000009c:	640007b7          	lui	a5,0x64000
    800000a0:	00100713          	li	a4,1
    800000a4:	00e7a423          	sw	a4,8(a5) # 64000008 <_prog_start-0x1bfffff8>
    while(1) {
	    kputs("Hello from the other side");
    800000a8:	00000417          	auipc	s0,0x0
    800000ac:	46040413          	addi	s0,s0,1120 # 80000508 <kprintf+0x21c>
    800000b0:	00040513          	mv	a0,s0
    800000b4:	07c000ef          	jal	ra,80000130 <kputs>
    while(1) {
    800000b8:	ff9ff06f          	j	800000b0 <main+0x20>

00000000800000bc <kread>:
}

void kread(char *s, int count)
{
	char *p = s;
	for (int i = 0; i < count; i++) {
    800000bc:	02b05c63          	blez	a1,800000f4 <kread+0x38>
    800000c0:	fff5861b          	addiw	a2,a1,-1
    800000c4:	02061613          	slli	a2,a2,0x20
    800000c8:	02065613          	srli	a2,a2,0x20
    800000cc:	00160613          	addi	a2,a2,1
    800000d0:	00c50633          	add	a2,a0,a2
{
	int32_t val = -1;
	volatile uint32_t *rx = &REG32(uart, UART_REG_RXFIFO);

	while (val < 0) {
		val = *rx;
    800000d4:	640006b7          	lui	a3,0x64000
		*p++ = kgetc();
    800000d8:	00150513          	addi	a0,a0,1
    800000dc:	0046a783          	lw	a5,4(a3) # 64000004 <_prog_start-0x1bfffffc>
	while (val < 0) {
    800000e0:	02079593          	slli	a1,a5,0x20
		val = *rx;
    800000e4:	0007871b          	sext.w	a4,a5
	while (val < 0) {
    800000e8:	fe05cae3          	bltz	a1,800000dc <kread+0x20>
	}
	
	return val & 0xff;
    800000ec:	fee50fa3          	sb	a4,-1(a0)
	for (int i = 0; i < count; i++) {
    800000f0:	fec514e3          	bne	a0,a2,800000d8 <kread+0x1c>
	}
}
    800000f4:	00008067          	ret

00000000800000f8 <kwrite>:

void kwrite(char *s, int count)
{
	char *p = s;
	for (int i = 0; i < count; i++) {
    800000f8:	02b05a63          	blez	a1,8000012c <kwrite+0x34>
    800000fc:	fff5861b          	addiw	a2,a1,-1
    80000100:	02061613          	slli	a2,a2,0x20
    80000104:	02065613          	srli	a2,a2,0x20
    80000108:	00160613          	addi	a2,a2,1
    8000010c:	00c50633          	add	a2,a0,a2
		__asm__ __volatile__ (
    80000110:	640007b7          	lui	a5,0x64000
		kputc(*p++);
    80000114:	00054703          	lbu	a4,0(a0)
    80000118:	00150513          	addi	a0,a0,1
    8000011c:	40e7a6af          	amoor.w	a3,a4,(a5)
	} while (r < 0);
    80000120:	02069593          	slli	a1,a3,0x20
    80000124:	fe05cce3          	bltz	a1,8000011c <kwrite+0x24>
	for (int i = 0; i < count; i++) {
    80000128:	fec516e3          	bne	a0,a2,80000114 <kwrite+0x1c>
	}
}
    8000012c:	00008067          	ret

0000000080000130 <kputs>:
	for (; (c = *s) != '\0'; s++)
    80000130:	00054703          	lbu	a4,0(a0)
    80000134:	02070063          	beqz	a4,80000154 <kputs+0x24>
		__asm__ __volatile__ (
    80000138:	640007b7          	lui	a5,0x64000
    8000013c:	40e7a6af          	amoor.w	a3,a4,(a5)
	} while (r < 0);
    80000140:	02069613          	slli	a2,a3,0x20
    80000144:	fe064ce3          	bltz	a2,8000013c <kputs+0xc>
    80000148:	00154703          	lbu	a4,1(a0)
    8000014c:	00150513          	addi	a0,a0,1
    80000150:	fe0716e3          	bnez	a4,8000013c <kputs+0xc>
		__asm__ __volatile__ (
    80000154:	640007b7          	lui	a5,0x64000
    80000158:	00a00713          	li	a4,10
    8000015c:	40e7a6af          	amoor.w	a3,a4,(a5)
	} while (r < 0);
    80000160:	02069613          	slli	a2,a3,0x20
    80000164:	fe064ce3          	bltz	a2,8000015c <kputs+0x2c>

void kputs(const char *s)
{
	_kputs(s);
	kputc('\n');
}
    80000168:	00008067          	ret

000000008000016c <kgets>:
		val = *rx;
    8000016c:	640006b7          	lui	a3,0x64000
	for (; (*s = kgetc()) != '\n'; s++);
    80000170:	00a00613          	li	a2,10
    80000174:	0046a783          	lw	a5,4(a3) # 64000004 <_prog_start-0x1bfffffc>
	while (val < 0) {
    80000178:	02079593          	slli	a1,a5,0x20
		val = *rx;
    8000017c:	0007871b          	sext.w	a4,a5
	while (val < 0) {
    80000180:	fe05cae3          	bltz	a1,80000174 <kgets+0x8>
	return val & 0xff;
    80000184:	0ff77713          	andi	a4,a4,255
    80000188:	00e50023          	sb	a4,0(a0)
    8000018c:	00c70663          	beq	a4,a2,80000198 <kgets+0x2c>
    80000190:	00150513          	addi	a0,a0,1
	while (val < 0) {
    80000194:	fe1ff06f          	j	80000174 <kgets+0x8>
	*s = '\0';
    80000198:	00050023          	sb	zero,0(a0)

void kgets(char *s){
	_kgets(s);	
}
    8000019c:	00008067          	ret

00000000800001a0 <_escape_char>:

void _escape_char(const char c){
	switch (c) {
    800001a0:	fde5051b          	addiw	a0,a0,-34
    800001a4:	0ff57513          	andi	a0,a0,255
    800001a8:	05400793          	li	a5,84
    800001ac:	02a7ea63          	bltu	a5,a0,800001e0 <_escape_char+0x40>
    800001b0:	00000717          	auipc	a4,0x0
    800001b4:	37870713          	addi	a4,a4,888 # 80000528 <kprintf+0x23c>
    800001b8:	00251513          	slli	a0,a0,0x2
    800001bc:	00e50533          	add	a0,a0,a4
    800001c0:	00052783          	lw	a5,0(a0)
    800001c4:	00e787b3          	add	a5,a5,a4
    800001c8:	00078067          	jr	a5 # 64000000 <_prog_start-0x1c000000>
		__asm__ __volatile__ (
    800001cc:	640007b7          	lui	a5,0x64000
    800001d0:	00000713          	li	a4,0
    800001d4:	40e7a6af          	amoor.w	a3,a4,(a5)
	} while (r < 0);
    800001d8:	02069613          	slli	a2,a3,0x20
    800001dc:	fe064ce3          	bltz	a2,800001d4 <_escape_char+0x34>
		kputc('\0');
		break;
	default:
		break;
	}
}
    800001e0:	00008067          	ret
		__asm__ __volatile__ (
    800001e4:	640007b7          	lui	a5,0x64000
    800001e8:	00a00713          	li	a4,10
    800001ec:	40e7a6af          	amoor.w	a3,a4,(a5)
	} while (r < 0);
    800001f0:	02069613          	slli	a2,a3,0x20
    800001f4:	fe064ce3          	bltz	a2,800001ec <_escape_char+0x4c>
    800001f8:	00008067          	ret
		__asm__ __volatile__ (
    800001fc:	640007b7          	lui	a5,0x64000
    80000200:	00a00713          	li	a4,10
    80000204:	40e7a6af          	amoor.w	a3,a4,(a5)
	} while (r < 0);
    80000208:	02069613          	slli	a2,a3,0x20
    8000020c:	fe064ce3          	bltz	a2,80000204 <_escape_char+0x64>
    80000210:	00008067          	ret
		__asm__ __volatile__ (
    80000214:	640007b7          	lui	a5,0x64000
    80000218:	00a00713          	li	a4,10
    8000021c:	40e7a6af          	amoor.w	a3,a4,(a5)
	} while (r < 0);
    80000220:	02069613          	slli	a2,a3,0x20
    80000224:	fe064ce3          	bltz	a2,8000021c <_escape_char+0x7c>
    80000228:	00008067          	ret
		__asm__ __volatile__ (
    8000022c:	640007b7          	lui	a5,0x64000
    80000230:	00a00713          	li	a4,10
    80000234:	40e7a6af          	amoor.w	a3,a4,(a5)
	} while (r < 0);
    80000238:	02069613          	slli	a2,a3,0x20
    8000023c:	fe064ce3          	bltz	a2,80000234 <_escape_char+0x94>
    80000240:	00008067          	ret
		__asm__ __volatile__ (
    80000244:	640007b7          	lui	a5,0x64000
    80000248:	00a00713          	li	a4,10
    8000024c:	40e7a6af          	amoor.w	a3,a4,(a5)
	} while (r < 0);
    80000250:	02069613          	slli	a2,a3,0x20
    80000254:	fe064ce3          	bltz	a2,8000024c <_escape_char+0xac>
    80000258:	00008067          	ret
		__asm__ __volatile__ (
    8000025c:	640007b7          	lui	a5,0x64000
    80000260:	00a00713          	li	a4,10
    80000264:	40e7a6af          	amoor.w	a3,a4,(a5)
	} while (r < 0);
    80000268:	02069613          	slli	a2,a3,0x20
    8000026c:	fe064ce3          	bltz	a2,80000264 <_escape_char+0xc4>
    80000270:	00008067          	ret
		__asm__ __volatile__ (
    80000274:	640007b7          	lui	a5,0x64000
    80000278:	00a00713          	li	a4,10
    8000027c:	40e7a6af          	amoor.w	a3,a4,(a5)
	} while (r < 0);
    80000280:	02069613          	slli	a2,a3,0x20
    80000284:	fe064ce3          	bltz	a2,8000027c <_escape_char+0xdc>
    80000288:	00008067          	ret
		__asm__ __volatile__ (
    8000028c:	640007b7          	lui	a5,0x64000
    80000290:	00a00713          	li	a4,10
    80000294:	40e7a6af          	amoor.w	a3,a4,(a5)
	} while (r < 0);
    80000298:	02069613          	slli	a2,a3,0x20
    8000029c:	fe064ce3          	bltz	a2,80000294 <_escape_char+0xf4>
    800002a0:	00008067          	ret
		__asm__ __volatile__ (
    800002a4:	640007b7          	lui	a5,0x64000
    800002a8:	03f00713          	li	a4,63
    800002ac:	40e7a6af          	amoor.w	a3,a4,(a5)
	} while (r < 0);
    800002b0:	02069613          	slli	a2,a3,0x20
    800002b4:	fe064ce3          	bltz	a2,800002ac <_escape_char+0x10c>
    800002b8:	00008067          	ret
		__asm__ __volatile__ (
    800002bc:	640007b7          	lui	a5,0x64000
    800002c0:	02700713          	li	a4,39
    800002c4:	40e7a6af          	amoor.w	a3,a4,(a5)
	} while (r < 0);
    800002c8:	02069613          	slli	a2,a3,0x20
    800002cc:	fe064ce3          	bltz	a2,800002c4 <_escape_char+0x124>
    800002d0:	00008067          	ret
		__asm__ __volatile__ (
    800002d4:	640007b7          	lui	a5,0x64000
    800002d8:	02200713          	li	a4,34
    800002dc:	40e7a6af          	amoor.w	a3,a4,(a5)
	} while (r < 0);
    800002e0:	02069613          	slli	a2,a3,0x20
    800002e4:	fe064ce3          	bltz	a2,800002dc <_escape_char+0x13c>
    800002e8:	00008067          	ret

00000000800002ec <kprintf>:

void kprintf(const char *fmt, ...)
{
    800002ec:	f5010113          	addi	sp,sp,-176
    800002f0:	08e13823          	sd	a4,144(sp)
    800002f4:	06113423          	sd	ra,104(sp)
    800002f8:	06813023          	sd	s0,96(sp)
    800002fc:	04913c23          	sd	s1,88(sp)
    80000300:	05213823          	sd	s2,80(sp)
    80000304:	05313423          	sd	s3,72(sp)
    80000308:	05413023          	sd	s4,64(sp)
    8000030c:	03513c23          	sd	s5,56(sp)
    80000310:	03613823          	sd	s6,48(sp)
    80000314:	03713423          	sd	s7,40(sp)
    80000318:	03813023          	sd	s8,32(sp)
    8000031c:	01913c23          	sd	s9,24(sp)
    80000320:	06b13c23          	sd	a1,120(sp)
    80000324:	08c13023          	sd	a2,128(sp)
    80000328:	08d13423          	sd	a3,136(sp)
    8000032c:	08f13c23          	sd	a5,152(sp)
    80000330:	0b013023          	sd	a6,160(sp)
    80000334:	0b113423          	sd	a7,168(sp)

	va_start(vl, fmt);
	is_format = false;
	is_long = false;
	is_char = false;
	while ((c = *fmt++) != '\0') {
    80000338:	00054783          	lbu	a5,0(a0)
	va_start(vl, fmt);
    8000033c:	07810713          	addi	a4,sp,120
    80000340:	00e13423          	sd	a4,8(sp)
	while ((c = *fmt++) != '\0') {
    80000344:	08078a63          	beqz	a5,800003d8 <kprintf+0xec>
    80000348:	00000493          	li	s1,0
    8000034c:	00050313          	mv	t1,a0
    80000350:	00150b13          	addi	s6,a0,1
    80000354:	00000a13          	li	s4,0
    80000358:	00000993          	li	s3,0
				break;
			}
			is_format = false;
			is_long = false;
			is_char = false;
		} else if (c == '%') {
    8000035c:	02500c13          	li	s8,37
			is_format = true;
		} else if (c == '\\') {
    80000360:	05c00c93          	li	s9,92
		__asm__ __volatile__ (
    80000364:	64000437          	lui	s0,0x64000
    80000368:	01500a93          	li	s5,21
    8000036c:	00000917          	auipc	s2,0x0
    80000370:	31090913          	addi	s2,s2,784 # 8000067c <kprintf+0x390>
					kputc(d < 10 ? '0' + d : 'a' + d - 10);
    80000374:	00900b93          	li	s7,9
		if (is_format) {
    80000378:	02049863          	bnez	s1,800003a8 <kprintf+0xbc>
		} else if (c == '%') {
    8000037c:	17878063          	beq	a5,s8,800004dc <kprintf+0x1f0>
		} else if (c == '\\') {
    80000380:	17978263          	beq	a5,s9,800004e4 <kprintf+0x1f8>
    80000384:	40f4272f          	amoor.w	a4,a5,(s0)
	} while (r < 0);
    80000388:	02071693          	slli	a3,a4,0x20
    8000038c:	fe06cce3          	bltz	a3,80000384 <kprintf+0x98>
	while ((c = *fmt++) != '\0') {
    80000390:	000b4783          	lbu	a5,0(s6)
    80000394:	001b0713          	addi	a4,s6,1
    80000398:	04078063          	beqz	a5,800003d8 <kprintf+0xec>
    8000039c:	000b0313          	mv	t1,s6
    800003a0:	00070b13          	mv	s6,a4
		if (is_format) {
    800003a4:	fc048ce3          	beqz	s1,8000037c <kprintf+0x90>
			switch (c) {
    800003a8:	f9d7879b          	addiw	a5,a5,-99
    800003ac:	0ff7f793          	andi	a5,a5,255
    800003b0:	0afae863          	bltu	s5,a5,80000460 <kprintf+0x174>
    800003b4:	00279793          	slli	a5,a5,0x2
    800003b8:	012787b3          	add	a5,a5,s2
    800003bc:	0007a783          	lw	a5,0(a5) # 64000000 <_prog_start-0x1c000000>
    800003c0:	012787b3          	add	a5,a5,s2
    800003c4:	00078067          	jr	a5
	while ((c = *fmt++) != '\0') {
    800003c8:	000b4783          	lbu	a5,0(s6)
		if (is_format) {
    800003cc:	00048993          	mv	s3,s1
	while ((c = *fmt++) != '\0') {
    800003d0:	001b0713          	addi	a4,s6,1
    800003d4:	fc0794e3          	bnez	a5,8000039c <kprintf+0xb0>
		} else {
			kputc(c);
		}
	}
	va_end(vl);
}
    800003d8:	06813083          	ld	ra,104(sp)
    800003dc:	06013403          	ld	s0,96(sp)
    800003e0:	05813483          	ld	s1,88(sp)
    800003e4:	05013903          	ld	s2,80(sp)
    800003e8:	04813983          	ld	s3,72(sp)
    800003ec:	04013a03          	ld	s4,64(sp)
    800003f0:	03813a83          	ld	s5,56(sp)
    800003f4:	03013b03          	ld	s6,48(sp)
    800003f8:	02813b83          	ld	s7,40(sp)
    800003fc:	02013c03          	ld	s8,32(sp)
    80000400:	01813c83          	ld	s9,24(sp)
    80000404:	0b010113          	addi	sp,sp,176
    80000408:	00008067          	ret
				is_char = true;
    8000040c:	00048a13          	mv	s4,s1
    80000410:	f81ff06f          	j	80000390 <kprintf+0xa4>
				if (is_long) {
    80000414:	00813783          	ld	a5,8(sp)
    80000418:	00878713          	addi	a4,a5,8
    8000041c:	0c099c63          	bnez	s3,800004f4 <kprintf+0x208>
					n = va_arg(vl, unsigned int);
    80000420:	00e13423          	sd	a4,8(sp)
    80000424:	0007e503          	lwu	a0,0(a5)
					i = is_char ? 4 : (sizeof(unsigned int) << 3) - 4;
    80000428:	00400693          	li	a3,4
    8000042c:	000a1463          	bnez	s4,80000434 <kprintf+0x148>
    80000430:	01c00693          	li	a3,28
    80000434:	ffc6e593          	ori	a1,a3,-4
					d = (n >> i) & 0xF;
    80000438:	00d557b3          	srl	a5,a0,a3
    8000043c:	00f7f613          	andi	a2,a5,15
					kputc(d < 10 ? '0' + d : 'a' + d - 10);
    80000440:	05760793          	addi	a5,a2,87
    80000444:	00cbc463          	blt	s7,a2,8000044c <kprintf+0x160>
    80000448:	03060793          	addi	a5,a2,48
		__asm__ __volatile__ (
    8000044c:	40f4272f          	amoor.w	a4,a5,(s0)
	} while (r < 0);
    80000450:	02071613          	slli	a2,a4,0x20
    80000454:	fe064ce3          	bltz	a2,8000044c <kprintf+0x160>
				for (; i >= 0; i -= 4) {
    80000458:	ffc68693          	addi	a3,a3,-4
    8000045c:	fcb69ee3          	bne	a3,a1,80000438 <kprintf+0x14c>
			is_char = false;
    80000460:	00000a13          	li	s4,0
			is_long = false;
    80000464:	00000993          	li	s3,0
			is_format = false;
    80000468:	00000493          	li	s1,0
    8000046c:	f25ff06f          	j	80000390 <kprintf+0xa4>
				kputc(va_arg(vl, int));
    80000470:	00813703          	ld	a4,8(sp)
    80000474:	00074783          	lbu	a5,0(a4)
    80000478:	00870713          	addi	a4,a4,8
    8000047c:	00e13423          	sd	a4,8(sp)
		__asm__ __volatile__ (
    80000480:	40f4272f          	amoor.w	a4,a5,(s0)
	} while (r < 0);
    80000484:	02071693          	slli	a3,a4,0x20
    80000488:	fe06cce3          	bltz	a3,80000480 <kprintf+0x194>
			is_char = false;
    8000048c:	00000a13          	li	s4,0
			is_long = false;
    80000490:	00000993          	li	s3,0
			is_format = false;
    80000494:	00000493          	li	s1,0
    80000498:	ef9ff06f          	j	80000390 <kprintf+0xa4>
				_kputs(va_arg(vl, const char *));
    8000049c:	00813783          	ld	a5,8(sp)
    800004a0:	0007b683          	ld	a3,0(a5)
    800004a4:	00878793          	addi	a5,a5,8
    800004a8:	00f13423          	sd	a5,8(sp)
	for (; (c = *s) != '\0'; s++)
    800004ac:	0006c783          	lbu	a5,0(a3)
    800004b0:	fa0788e3          	beqz	a5,80000460 <kprintf+0x174>
		__asm__ __volatile__ (
    800004b4:	40f4272f          	amoor.w	a4,a5,(s0)
	} while (r < 0);
    800004b8:	02071613          	slli	a2,a4,0x20
    800004bc:	fe064ce3          	bltz	a2,800004b4 <kprintf+0x1c8>
    800004c0:	0016c783          	lbu	a5,1(a3)
    800004c4:	00168693          	addi	a3,a3,1
    800004c8:	fe0796e3          	bnez	a5,800004b4 <kprintf+0x1c8>
			is_char = false;
    800004cc:	00000a13          	li	s4,0
			is_long = false;
    800004d0:	00000993          	li	s3,0
			is_format = false;
    800004d4:	00000493          	li	s1,0
    800004d8:	eb9ff06f          	j	80000390 <kprintf+0xa4>
			is_format = true;
    800004dc:	00100493          	li	s1,1
    800004e0:	eb1ff06f          	j	80000390 <kprintf+0xa4>
			_escape_char(*(fmt++));
    800004e4:	00134503          	lbu	a0,1(t1)
    800004e8:	00230b13          	addi	s6,t1,2
    800004ec:	cb5ff0ef          	jal	ra,800001a0 <_escape_char>
    800004f0:	ea1ff06f          	j	80000390 <kprintf+0xa4>
					n = va_arg(vl, unsigned long);
    800004f4:	0007b503          	ld	a0,0(a5)
    800004f8:	00e13423          	sd	a4,8(sp)
					i = (sizeof(unsigned long) << 3) - 4;
    800004fc:	03c00693          	li	a3,60
    80000500:	f35ff06f          	j	80000434 <kprintf+0x148>

Disassembly of section .rodata:

0000000080000508 <etext-0xaf8>:
    80000508:	6548                	ld	a0,136(a0)
    8000050a:	6c6c                	ld	a1,216(s0)
    8000050c:	7266206f          	j	80062c32 <end+0x59c32>
    80000510:	74206d6f          	jal	s10,80006c52 <_gp+0x5452>
    80000514:	6568                	ld	a0,200(a0)
    80000516:	6f20                	ld	s0,88(a4)
    80000518:	6874                	ld	a3,208(s0)
    8000051a:	7265                	lui	tp,0xffff9
    8000051c:	7320                	ld	s0,96(a4)
    8000051e:	6469                	lui	s0,0x1a
    80000520:	0065                	c.nop	25
    80000522:	0000                	unimp
    80000524:	0000                	unimp
    80000526:	0000                	unimp
    80000528:	fdac                	sd	a1,120(a1)
    8000052a:	ffff                	0xffff
    8000052c:	fcb8                	sd	a4,120(s1)
    8000052e:	ffff                	0xffff
    80000530:	fcb8                	sd	a4,120(s1)
    80000532:	ffff                	0xffff
    80000534:	fcb8                	sd	a4,120(s1)
    80000536:	ffff                	0xffff
    80000538:	fcb8                	sd	a4,120(s1)
    8000053a:	ffff                	0xffff
    8000053c:	fd94                	sd	a3,56(a1)
    8000053e:	ffff                	0xffff
    80000540:	fcb8                	sd	a4,120(s1)
    80000542:	ffff                	0xffff
    80000544:	fcb8                	sd	a4,120(s1)
    80000546:	ffff                	0xffff
    80000548:	fcb8                	sd	a4,120(s1)
    8000054a:	ffff                	0xffff
    8000054c:	fcb8                	sd	a4,120(s1)
    8000054e:	ffff                	0xffff
    80000550:	fcb8                	sd	a4,120(s1)
    80000552:	ffff                	0xffff
    80000554:	fcb8                	sd	a4,120(s1)
    80000556:	ffff                	0xffff
    80000558:	fcb8                	sd	a4,120(s1)
    8000055a:	ffff                	0xffff
    8000055c:	fcb8                	sd	a4,120(s1)
    8000055e:	ffff                	0xffff
    80000560:	fca4                	sd	s1,120(s1)
    80000562:	ffff                	0xffff
    80000564:	fcb8                	sd	a4,120(s1)
    80000566:	ffff                	0xffff
    80000568:	fcb8                	sd	a4,120(s1)
    8000056a:	ffff                	0xffff
    8000056c:	fcb8                	sd	a4,120(s1)
    8000056e:	ffff                	0xffff
    80000570:	fcb8                	sd	a4,120(s1)
    80000572:	ffff                	0xffff
    80000574:	fcb8                	sd	a4,120(s1)
    80000576:	ffff                	0xffff
    80000578:	fcb8                	sd	a4,120(s1)
    8000057a:	ffff                	0xffff
    8000057c:	fcb8                	sd	a4,120(s1)
    8000057e:	ffff                	0xffff
    80000580:	fcb8                	sd	a4,120(s1)
    80000582:	ffff                	0xffff
    80000584:	fcb8                	sd	a4,120(s1)
    80000586:	ffff                	0xffff
    80000588:	fcb8                	sd	a4,120(s1)
    8000058a:	ffff                	0xffff
    8000058c:	fcb8                	sd	a4,120(s1)
    8000058e:	ffff                	0xffff
    80000590:	fcb8                	sd	a4,120(s1)
    80000592:	ffff                	0xffff
    80000594:	fcb8                	sd	a4,120(s1)
    80000596:	ffff                	0xffff
    80000598:	fcb8                	sd	a4,120(s1)
    8000059a:	ffff                	0xffff
    8000059c:	fd7c                	sd	a5,248(a0)
    8000059e:	ffff                	0xffff
    800005a0:	fcb8                	sd	a4,120(s1)
    800005a2:	ffff                	0xffff
    800005a4:	fcb8                	sd	a4,120(s1)
    800005a6:	ffff                	0xffff
    800005a8:	fcb8                	sd	a4,120(s1)
    800005aa:	ffff                	0xffff
    800005ac:	fcb8                	sd	a4,120(s1)
    800005ae:	ffff                	0xffff
    800005b0:	fcb8                	sd	a4,120(s1)
    800005b2:	ffff                	0xffff
    800005b4:	fcb8                	sd	a4,120(s1)
    800005b6:	ffff                	0xffff
    800005b8:	fcb8                	sd	a4,120(s1)
    800005ba:	ffff                	0xffff
    800005bc:	fcb8                	sd	a4,120(s1)
    800005be:	ffff                	0xffff
    800005c0:	fcb8                	sd	a4,120(s1)
    800005c2:	ffff                	0xffff
    800005c4:	fcb8                	sd	a4,120(s1)
    800005c6:	ffff                	0xffff
    800005c8:	fcb8                	sd	a4,120(s1)
    800005ca:	ffff                	0xffff
    800005cc:	fcb8                	sd	a4,120(s1)
    800005ce:	ffff                	0xffff
    800005d0:	fcb8                	sd	a4,120(s1)
    800005d2:	ffff                	0xffff
    800005d4:	fcb8                	sd	a4,120(s1)
    800005d6:	ffff                	0xffff
    800005d8:	fcb8                	sd	a4,120(s1)
    800005da:	ffff                	0xffff
    800005dc:	fcb8                	sd	a4,120(s1)
    800005de:	ffff                	0xffff
    800005e0:	fcb8                	sd	a4,120(s1)
    800005e2:	ffff                	0xffff
    800005e4:	fcb8                	sd	a4,120(s1)
    800005e6:	ffff                	0xffff
    800005e8:	fcb8                	sd	a4,120(s1)
    800005ea:	ffff                	0xffff
    800005ec:	fcb8                	sd	a4,120(s1)
    800005ee:	ffff                	0xffff
    800005f0:	fcb8                	sd	a4,120(s1)
    800005f2:	ffff                	0xffff
    800005f4:	fcb8                	sd	a4,120(s1)
    800005f6:	ffff                	0xffff
    800005f8:	fcb8                	sd	a4,120(s1)
    800005fa:	ffff                	0xffff
    800005fc:	fcb8                	sd	a4,120(s1)
    800005fe:	ffff                	0xffff
    80000600:	fcb8                	sd	a4,120(s1)
    80000602:	ffff                	0xffff
    80000604:	fcb8                	sd	a4,120(s1)
    80000606:	ffff                	0xffff
    80000608:	fcb8                	sd	a4,120(s1)
    8000060a:	ffff                	0xffff
    8000060c:	fcb8                	sd	a4,120(s1)
    8000060e:	ffff                	0xffff
    80000610:	fd64                	sd	s1,248(a0)
    80000612:	ffff                	0xffff
    80000614:	fcb8                	sd	a4,120(s1)
    80000616:	ffff                	0xffff
    80000618:	fcb8                	sd	a4,120(s1)
    8000061a:	ffff                	0xffff
    8000061c:	fcb8                	sd	a4,120(s1)
    8000061e:	ffff                	0xffff
    80000620:	fcb8                	sd	a4,120(s1)
    80000622:	ffff                	0xffff
    80000624:	fd4c                	sd	a1,184(a0)
    80000626:	ffff                	0xffff
    80000628:	fd34                	sd	a3,120(a0)
    8000062a:	ffff                	0xffff
    8000062c:	fcb8                	sd	a4,120(s1)
    8000062e:	ffff                	0xffff
    80000630:	fcb8                	sd	a4,120(s1)
    80000632:	ffff                	0xffff
    80000634:	fcb8                	sd	a4,120(s1)
    80000636:	ffff                	0xffff
    80000638:	fd1c                	sd	a5,56(a0)
    8000063a:	ffff                	0xffff
    8000063c:	fcb8                	sd	a4,120(s1)
    8000063e:	ffff                	0xffff
    80000640:	fcb8                	sd	a4,120(s1)
    80000642:	ffff                	0xffff
    80000644:	fcb8                	sd	a4,120(s1)
    80000646:	ffff                	0xffff
    80000648:	fcb8                	sd	a4,120(s1)
    8000064a:	ffff                	0xffff
    8000064c:	fcb8                	sd	a4,120(s1)
    8000064e:	ffff                	0xffff
    80000650:	fcb8                	sd	a4,120(s1)
    80000652:	ffff                	0xffff
    80000654:	fcb8                	sd	a4,120(s1)
    80000656:	ffff                	0xffff
    80000658:	fd04                	sd	s1,56(a0)
    8000065a:	ffff                	0xffff
    8000065c:	fcb8                	sd	a4,120(s1)
    8000065e:	ffff                	0xffff
    80000660:	fcb8                	sd	a4,120(s1)
    80000662:	ffff                	0xffff
    80000664:	fcb8                	sd	a4,120(s1)
    80000666:	ffff                	0xffff
    80000668:	fcec                	sd	a1,248(s1)
    8000066a:	ffff                	0xffff
    8000066c:	fcb8                	sd	a4,120(s1)
    8000066e:	ffff                	0xffff
    80000670:	fcd4                	sd	a3,184(s1)
    80000672:	ffff                	0xffff
    80000674:	fcb8                	sd	a4,120(s1)
    80000676:	ffff                	0xffff
    80000678:	fcbc                	sd	a5,120(s1)
    8000067a:	ffff                	0xffff
    8000067c:	fdf4                	sd	a3,248(a1)
    8000067e:	ffff                	0xffff
    80000680:	fde4                	sd	s1,248(a1)
    80000682:	ffff                	0xffff
    80000684:	fde4                	sd	s1,248(a1)
    80000686:	ffff                	0xffff
    80000688:	fde4                	sd	s1,248(a1)
    8000068a:	ffff                	0xffff
    8000068c:	fde4                	sd	s1,248(a1)
    8000068e:	ffff                	0xffff
    80000690:	fd90                	sd	a2,56(a1)
    80000692:	ffff                	0xffff
    80000694:	fde4                	sd	s1,248(a1)
    80000696:	ffff                	0xffff
    80000698:	fde4                	sd	s1,248(a1)
    8000069a:	ffff                	0xffff
    8000069c:	fde4                	sd	s1,248(a1)
    8000069e:	ffff                	0xffff
    800006a0:	fd4c                	sd	a1,184(a0)
    800006a2:	ffff                	0xffff
    800006a4:	fde4                	sd	s1,248(a1)
    800006a6:	ffff                	0xffff
    800006a8:	fde4                	sd	s1,248(a1)
    800006aa:	ffff                	0xffff
    800006ac:	fde4                	sd	s1,248(a1)
    800006ae:	ffff                	0xffff
    800006b0:	fde4                	sd	s1,248(a1)
    800006b2:	ffff                	0xffff
    800006b4:	fde4                	sd	s1,248(a1)
    800006b6:	ffff                	0xffff
    800006b8:	fde4                	sd	s1,248(a1)
    800006ba:	ffff                	0xffff
    800006bc:	fe20                	sd	s0,120(a2)
    800006be:	ffff                	0xffff
    800006c0:	fde4                	sd	s1,248(a1)
    800006c2:	ffff                	0xffff
    800006c4:	fde4                	sd	s1,248(a1)
    800006c6:	ffff                	0xffff
    800006c8:	fde4                	sd	s1,248(a1)
    800006ca:	ffff                	0xffff
    800006cc:	fde4                	sd	s1,248(a1)
    800006ce:	ffff                	0xffff
    800006d0:	fd98                	sd	a4,56(a1)
    800006d2:	ffff                	0xffff

Disassembly of section .data:

00000000800006d4 <end-0x892c>:
	...

Disassembly of section .riscv.attributes:

0000000000000000 <.riscv.attributes>:
   0:	2541                	addiw	a0,a0,16
   2:	0000                	unimp
   4:	7200                	ld	s0,32(a2)
   6:	7369                	lui	t1,0xffffa
   8:	01007663          	bgeu	zero,a6,14 <_prog_start-0x7fffffec>
   c:	0000001b          	sext.w	zero,zero
  10:	1004                	addi	s1,sp,32
  12:	7205                	lui	tp,0xfffe1
  14:	3676                	fld	fa2,376(sp)
  16:	6934                	ld	a3,80(a0)
  18:	7032                	0x7032
  1a:	5f30                	lw	a2,120(a4)
  1c:	326d                	addiw	tp,tp,-5
  1e:	3070                	fld	fa2,224(s0)
  20:	615f 7032 0030      	0x307032615f

Disassembly of section .comment:

0000000000000000 <.comment>:
   0:	3a434347          	fmsub.d	ft6,ft6,ft4,ft7,rmm
   4:	2820                	fld	fs0,80(s0)
   6:	29554e47          	fmsub.s	ft8,fa0,fs5,ft5,rmm
   a:	3920                	fld	fs0,112(a0)
   c:	322e                	fld	ft4,232(sp)
   e:	302e                	fld	ft0,232(sp)
	...

Disassembly of section .debug_line:

0000000000000000 <.debug_line>:
   0:	0061                	c.nop	24
   2:	0000                	unimp
   4:	001d0003          	lb	zero,1(s10)
   8:	0000                	unimp
   a:	0101                	addi	sp,sp,0
   c:	000d0efb          	0xd0efb
  10:	0101                	addi	sp,sp,0
  12:	0101                	addi	sp,sp,0
  14:	0000                	unimp
  16:	0100                	addi	s0,sp,128
  18:	0000                	unimp
  1a:	0001                	nop
  1c:	6568                	ld	a0,200(a0)
  1e:	6461                	lui	s0,0x18
  20:	532e                	lw	t1,232(sp)
  22:	0000                	unimp
  24:	0000                	unimp
  26:	0000                	unimp
  28:	0209                	addi	tp,tp,2
  2a:	0000                	unimp
  2c:	8000                	0x8000
  2e:	0000                	unimp
  30:	0000                	unimp
  32:	03010903          	lb	s2,48(sp)
  36:	0901                	addi	s2,s2,0
  38:	0014                	0x14
  3a:	0301                	addi	t1,t1,0
  3c:	0901                	addi	s2,s2,0
  3e:	000c                	0xc
  40:	0301                	addi	t1,t1,0
  42:	0901                	addi	s2,s2,0
  44:	0004                	0x4
  46:	0301                	addi	t1,t1,0
  48:	0901                	addi	s2,s2,0
  4a:	0058                	addi	a4,sp,4
  4c:	0301                	addi	t1,t1,0
  4e:	0901                	addi	s2,s2,0
  50:	0004                	0x4
  52:	0301                	addi	t1,t1,0
  54:	0901                	addi	s2,s2,0
  56:	0004                	0x4
  58:	0301                	addi	t1,t1,0
  5a:	0901                	addi	s2,s2,0
  5c:	0008                	0x8
  5e:	0901                	addi	s2,s2,0
  60:	0004                	0x4
  62:	0100                	addi	s0,sp,128
  64:	d601                	beqz	a2,ffffffffffffff6c <end+0xffffffff7fff6f6c>
  66:	0001                	nop
  68:	0300                	addi	s0,sp,384
  6a:	7400                	ld	s0,40(s0)
  6c:	0001                	nop
  6e:	0100                	addi	s0,sp,128
  70:	fb01                	bnez	a4,ffffffffffffff80 <end+0xffffffff7fff6f80>
  72:	0d0e                	slli	s10,s10,0x3
  74:	0100                	addi	s0,sp,128
  76:	0101                	addi	sp,sp,0
  78:	0001                	nop
  7a:	0000                	unimp
  7c:	0001                	nop
  7e:	0100                	addi	s0,sp,128
  80:	6d6f682f          	0x6d6f682f
  84:	2f65                	addiw	t5,t5,25
  86:	7375                	lui	t1,0xffffd
  88:	7265                	lui	tp,0xffff9
  8a:	736f2f73          	csrrs	t5,0x736,t5
  8e:	2e726163          	bltu	tp,t2,370 <_prog_start-0x7ffffc90>
  92:	696c6563          	bltu	s8,s6,71c <_prog_start-0x7ffff8e4>
  96:	6f572f73          	csrrs	t5,0x6f5,a4
  9a:	6b72                	ld	s6,280(sp)
  9c:	63617073          	csrci	0x636,2
  a0:	2f65                	addiw	t5,t5,25
  a2:	70696863          	bltu	s2,t1,7b2 <_prog_start-0x7ffff84e>
  a6:	6179                	addi	sp,sp,464
  a8:	6472                	ld	s0,280(sp)
  aa:	7369722f          	0x7369722f
  ae:	742d7663          	bgeu	s10,sp,7fa <_prog_start-0x7ffff806>
  b2:	736c6f6f          	jal	t5,c67e8 <_prog_start-0x7ff39818>
  b6:	692d                	lui	s2,0xb
  b8:	736e                	ld	t1,248(sp)
  ba:	6174                	ld	a3,192(a0)
  bc:	6c6c                	ld	a1,216(s0)
  be:	7369722f          	0x7369722f
  c2:	34367663          	bgeu	a2,gp,40e <_prog_start-0x7ffffbf2>
  c6:	752d                	lui	a0,0xfffeb
  c8:	6b6e                	ld	s6,216(sp)
  ca:	6f6e                	ld	t5,216(sp)
  cc:	652d6e77          	0x652d6e77
  d0:	666c                	ld	a1,200(a2)
  d2:	636e692f          	0x636e692f
  d6:	756c                	ld	a1,232(a0)
  d8:	6564                	ld	s1,200(a0)
  da:	63616d2f          	0x63616d2f
  de:	6968                	ld	a0,208(a0)
  e0:	656e                	ld	a0,216(sp)
  e2:	2f00                	fld	fs0,24(a4)
  e4:	6f68                	ld	a0,216(a4)
  e6:	656d                	lui	a0,0x1b
  e8:	6573752f          	0x6573752f
  ec:	7372                	ld	t1,312(sp)
  ee:	63736f2f          	0x63736f2f
  f2:	7261                	lui	tp,0xffff8
  f4:	632e                	ld	t1,200(sp)
  f6:	6c65                	lui	s8,0x19
  f8:	7369                	lui	t1,0xffffa
  fa:	726f572f          	0x726f572f
  fe:	6170736b          	0x6170736b
 102:	632f6563          	bltu	t5,s2,72c <_prog_start-0x7ffff8d4>
 106:	6968                	ld	a0,208(a0)
 108:	7970                	ld	a2,240(a0)
 10a:	7261                	lui	tp,0xffff8
 10c:	2f64                	fld	fs1,216(a4)
 10e:	6972                	ld	s2,280(sp)
 110:	2d766373          	csrrsi	t1,0x2d7,12
 114:	6f74                	ld	a3,216(a4)
 116:	2d736c6f          	jal	s8,36bec <_prog_start-0x7ffc9414>
 11a:	6e69                	lui	t3,0x1a
 11c:	6c617473          	csrrci	s0,0x6c6,2
 120:	2f6c                	fld	fa1,216(a4)
 122:	6972                	ld	s2,280(sp)
 124:	36766373          	csrrsi	t1,0x367,12
 128:	2d34                	fld	fa3,88(a0)
 12a:	6e75                	lui	t3,0x1d
 12c:	776f6e6b          	0x776f6e6b
 130:	2d6e                	fld	fs10,216(sp)
 132:	6c65                	lui	s8,0x19
 134:	2f66                	fld	ft10,88(sp)
 136:	6e69                	lui	t3,0x1a
 138:	64756c63          	bltu	a0,t2,790 <_prog_start-0x7ffff870>
 13c:	2f65                	addiw	t5,t5,25
 13e:	00737973          	csrrci	s2,0x7,6
 142:	6d6f682f          	0x6d6f682f
 146:	2f65                	addiw	t5,t5,25
 148:	7375                	lui	t1,0xffffd
 14a:	7265                	lui	tp,0xffff9
 14c:	736f2f73          	csrrs	t5,0x736,t5
 150:	2e726163          	bltu	tp,t2,432 <_prog_start-0x7ffffbce>
 154:	696c6563          	bltu	s8,s6,7de <_prog_start-0x7ffff822>
 158:	6f572f73          	csrrs	t5,0x6f5,a4
 15c:	6b72                	ld	s6,280(sp)
 15e:	63617073          	csrci	0x636,2
 162:	2f65                	addiw	t5,t5,25
 164:	70696863          	bltu	s2,t1,874 <_prog_start-0x7ffff78c>
 168:	6179                	addi	sp,sp,464
 16a:	6472                	ld	s0,280(sp)
 16c:	6770662f          	0x6770662f
 170:	2f61                	addiw	t5,t5,24
 172:	2f637273          	csrrci	tp,0x2f6,6
 176:	616d                	addi	sp,sp,240
 178:	6e69                	lui	t3,0x1a
 17a:	7365722f          	0x7365722f
 17e:	6372756f          	jal	a0,27fb4 <_prog_start-0x7ffd804c>
 182:	7365                	lui	t1,0xffff9
 184:	3763762f          	0x3763762f
 188:	3730                	fld	fa2,104(a4)
 18a:	2d77662f          	0x2d77662f
 18e:	6564                	ld	s1,200(a0)
 190:	6f6d                	lui	t5,0x1b
 192:	6e692f2f          	0x6e692f2f
 196:	64756c63          	bltu	a0,t2,7ee <_prog_start-0x7ffff812>
 19a:	0065                	c.nop	25
 19c:	6800                	ld	s0,16(s0)
 19e:	6c65                	lui	s8,0x19
 1a0:	6f6c                	ld	a1,216(a4)
 1a2:	632e                	ld	t1,200(sp)
 1a4:	0000                	unimp
 1a6:	0000                	unimp
 1a8:	645f 6665 7561      	0x75616665645f
 1ae:	746c                	ld	a1,232(s0)
 1b0:	745f 7079 7365      	0x73657079745f
 1b6:	682e                	ld	a6,200(sp)
 1b8:	0100                	addi	s0,sp,128
 1ba:	0000                	unimp
 1bc:	735f 6474 6e69      	0x6e696474735f
 1c2:	2e74                	fld	fa3,216(a2)
 1c4:	0068                	addi	a0,sp,12
 1c6:	0002                	c.slli64	zero
 1c8:	7500                	ld	s0,40(a0)
 1ca:	696e                	ld	s2,216(sp)
 1cc:	2e647473          	csrrci	s0,0x2e6,8
 1d0:	0068                	addi	a0,sp,12
 1d2:	0002                	c.slli64	zero
 1d4:	6b00                	ld	s0,16(a4)
 1d6:	7270                	ld	a2,224(a2)
 1d8:	6e69                	lui	t3,0x1a
 1da:	6674                	ld	a3,200(a2)
 1dc:	682e                	ld	a6,200(sp)
 1de:	0300                	addi	s0,sp,384
 1e0:	0000                	unimp
 1e2:	0500                	addi	s0,sp,640
 1e4:	0001                	nop
 1e6:	0209                	addi	tp,tp,2
 1e8:	0090                	addi	a2,sp,64
 1ea:	8000                	0x8000
 1ec:	0000                	unimp
 1ee:	0000                	unimp
 1f0:	05010b03          	lb	s6,80(sp)
 1f4:	0305                	addi	t1,t1,1
 1f6:	0901                	addi	s2,s2,0
 1f8:	0000                	unimp
 1fa:	0501                	addi	a0,a0,0
 1fc:	0601                	addi	a2,a2,0
 1fe:	00097f03          	0x97f03
 202:	0100                	addi	s0,sp,128
 204:	2205                	addiw	tp,tp,1
 206:	0c090103          	lb	sp,192(s2) # b0c0 <_prog_start-0x7fff4f40>
 20a:	0100                	addi	s0,sp,128
 20c:	0605                	addi	a2,a2,1
 20e:	0c090203          	lb	tp,192(s2)
 212:	0100                	addi	s0,sp,128
 214:	0505                	addi	a0,a0,1
 216:	0200                	addi	s0,sp,256
 218:	0104                	addi	s1,sp,128
 21a:	0306                	slli	t1,t1,0x1
 21c:	097f                	0x97f
 21e:	0008                	0x8
 220:	0501                	addi	a0,a0,0
 222:	0006                	c.slli	zero,0x1
 224:	0402                	c.slli64	s0
 226:	0301                	addi	t1,t1,0
 228:	0901                	addi	s2,s2,0
 22a:	0000                	unimp
 22c:	0501                	addi	a0,a0,0
 22e:	000a                	c.slli	zero,0x2
 230:	0402                	c.slli64	s0
 232:	0301                	addi	t1,t1,0
 234:	097f                	0x97f
 236:	0008                	0x8
 238:	0901                	addi	s2,s2,0
 23a:	0004                	0x4
 23c:	0100                	addi	s0,sp,128
 23e:	5801                	li	a6,-32
 240:	0300000b          	0x300000b
 244:	df00                	sw	s0,56(a4)
 246:	0001                	nop
 248:	0100                	addi	s0,sp,128
 24a:	fb01                	bnez	a4,15a <_prog_start-0x7ffffea6>
 24c:	0d0e                	slli	s10,s10,0x3
 24e:	0100                	addi	s0,sp,128
 250:	0101                	addi	sp,sp,0
 252:	0001                	nop
 254:	0000                	unimp
 256:	0001                	nop
 258:	0100                	addi	s0,sp,128
 25a:	6d6f682f          	0x6d6f682f
 25e:	2f65                	addiw	t5,t5,25
 260:	7375                	lui	t1,0xffffd
 262:	7265                	lui	tp,0xffff9
 264:	736f2f73          	csrrs	t5,0x736,t5
 268:	2e726163          	bltu	tp,t2,54a <_prog_start-0x7ffffab6>
 26c:	696c6563          	bltu	s8,s6,8f6 <_prog_start-0x7ffff70a>
 270:	6f572f73          	csrrs	t5,0x6f5,a4
 274:	6b72                	ld	s6,280(sp)
 276:	63617073          	csrci	0x636,2
 27a:	2f65                	addiw	t5,t5,25
 27c:	70696863          	bltu	s2,t1,98c <_prog_start-0x7ffff674>
 280:	6179                	addi	sp,sp,464
 282:	6472                	ld	s0,280(sp)
 284:	6770662f          	0x6770662f
 288:	2f61                	addiw	t5,t5,24
 28a:	2f637273          	csrrci	tp,0x2f6,6
 28e:	616d                	addi	sp,sp,240
 290:	6e69                	lui	t3,0x1a
 292:	7365722f          	0x7365722f
 296:	6372756f          	jal	a0,280cc <_prog_start-0x7ffd7f34>
 29a:	7365                	lui	t1,0xffff9
 29c:	3763762f          	0x3763762f
 2a0:	3730                	fld	fa2,104(a4)
 2a2:	2d77662f          	0x2d77662f
 2a6:	6564                	ld	s1,200(a0)
 2a8:	6f6d                	lui	t5,0x1b
 2aa:	6e692f2f          	0x6e692f2f
 2ae:	64756c63          	bltu	a0,t2,906 <_prog_start-0x7ffff6fa>
 2b2:	0065                	c.nop	25
 2b4:	6d6f682f          	0x6d6f682f
 2b8:	2f65                	addiw	t5,t5,25
 2ba:	7375                	lui	t1,0xffffd
 2bc:	7265                	lui	tp,0xffff9
 2be:	736f2f73          	csrrs	t5,0x736,t5
 2c2:	2e726163          	bltu	tp,t2,5a4 <_prog_start-0x7ffffa5c>
 2c6:	696c6563          	bltu	s8,s6,950 <_prog_start-0x7ffff6b0>
 2ca:	6f572f73          	csrrs	t5,0x6f5,a4
 2ce:	6b72                	ld	s6,280(sp)
 2d0:	63617073          	csrci	0x636,2
 2d4:	2f65                	addiw	t5,t5,25
 2d6:	70696863          	bltu	s2,t1,9e6 <_prog_start-0x7ffff61a>
 2da:	6179                	addi	sp,sp,464
 2dc:	6472                	ld	s0,280(sp)
 2de:	7369722f          	0x7369722f
 2e2:	742d7663          	bgeu	s10,sp,a2e <_prog_start-0x7ffff5d2>
 2e6:	736c6f6f          	jal	t5,c6a1c <_prog_start-0x7ff395e4>
 2ea:	692d                	lui	s2,0xb
 2ec:	736e                	ld	t1,248(sp)
 2ee:	6174                	ld	a3,192(a0)
 2f0:	6c6c                	ld	a1,216(s0)
 2f2:	62696c2f          	0x62696c2f
 2f6:	6363672f          	0x6363672f
 2fa:	7369722f          	0x7369722f
 2fe:	34367663          	bgeu	a2,gp,64a <_prog_start-0x7ffff9b6>
 302:	752d                	lui	a0,0xfffeb
 304:	6b6e                	ld	s6,216(sp)
 306:	6f6e                	ld	t5,216(sp)
 308:	652d6e77          	0x652d6e77
 30c:	666c                	ld	a1,200(a2)
 30e:	322e392f          	0x322e392f
 312:	302e                	fld	ft0,232(sp)
 314:	636e692f          	0x636e692f
 318:	756c                	ld	a1,232(a0)
 31a:	6564                	ld	s1,200(a0)
 31c:	2f00                	fld	fs0,24(a4)
 31e:	6f68                	ld	a0,216(a4)
 320:	656d                	lui	a0,0x1b
 322:	6573752f          	0x6573752f
 326:	7372                	ld	t1,312(sp)
 328:	63736f2f          	0x63736f2f
 32c:	7261                	lui	tp,0xffff8
 32e:	632e                	ld	t1,200(sp)
 330:	6c65                	lui	s8,0x19
 332:	7369                	lui	t1,0xffffa
 334:	726f572f          	0x726f572f
 338:	6170736b          	0x6170736b
 33c:	632f6563          	bltu	t5,s2,966 <_prog_start-0x7ffff69a>
 340:	6968                	ld	a0,208(a0)
 342:	7970                	ld	a2,240(a0)
 344:	7261                	lui	tp,0xffff8
 346:	2f64                	fld	fs1,216(a4)
 348:	6972                	ld	s2,280(sp)
 34a:	2d766373          	csrrsi	t1,0x2d7,12
 34e:	6f74                	ld	a3,216(a4)
 350:	2d736c6f          	jal	s8,36e26 <_prog_start-0x7ffc91da>
 354:	6e69                	lui	t3,0x1a
 356:	6c617473          	csrrci	s0,0x6c6,2
 35a:	2f6c                	fld	fa1,216(a4)
 35c:	6972                	ld	s2,280(sp)
 35e:	36766373          	csrrsi	t1,0x367,12
 362:	2d34                	fld	fa3,88(a0)
 364:	6e75                	lui	t3,0x1d
 366:	776f6e6b          	0x776f6e6b
 36a:	2d6e                	fld	fs10,216(sp)
 36c:	6c65                	lui	s8,0x19
 36e:	2f66                	fld	ft10,88(sp)
 370:	6e69                	lui	t3,0x1a
 372:	64756c63          	bltu	a0,t2,9ca <_prog_start-0x7ffff636>
 376:	2f65                	addiw	t5,t5,25
 378:	616d                	addi	sp,sp,240
 37a:	6e696863          	bltu	s2,t1,a6a <_prog_start-0x7ffff596>
 37e:	0065                	c.nop	25
 380:	6d6f682f          	0x6d6f682f
 384:	2f65                	addiw	t5,t5,25
 386:	7375                	lui	t1,0xffffd
 388:	7265                	lui	tp,0xffff9
 38a:	736f2f73          	csrrs	t5,0x736,t5
 38e:	2e726163          	bltu	tp,t2,670 <_prog_start-0x7ffff990>
 392:	696c6563          	bltu	s8,s6,a1c <_prog_start-0x7ffff5e4>
 396:	6f572f73          	csrrs	t5,0x6f5,a4
 39a:	6b72                	ld	s6,280(sp)
 39c:	63617073          	csrci	0x636,2
 3a0:	2f65                	addiw	t5,t5,25
 3a2:	70696863          	bltu	s2,t1,ab2 <_prog_start-0x7ffff54e>
 3a6:	6179                	addi	sp,sp,464
 3a8:	6472                	ld	s0,280(sp)
 3aa:	7369722f          	0x7369722f
 3ae:	742d7663          	bgeu	s10,sp,afa <_prog_start-0x7ffff506>
 3b2:	736c6f6f          	jal	t5,c6ae8 <_prog_start-0x7ff39518>
 3b6:	692d                	lui	s2,0xb
 3b8:	736e                	ld	t1,248(sp)
 3ba:	6174                	ld	a3,192(a0)
 3bc:	6c6c                	ld	a1,216(s0)
 3be:	7369722f          	0x7369722f
 3c2:	34367663          	bgeu	a2,gp,70e <_prog_start-0x7ffff8f2>
 3c6:	752d                	lui	a0,0xfffeb
 3c8:	6b6e                	ld	s6,216(sp)
 3ca:	6f6e                	ld	t5,216(sp)
 3cc:	652d6e77          	0x652d6e77
 3d0:	666c                	ld	a1,200(a2)
 3d2:	636e692f          	0x636e692f
 3d6:	756c                	ld	a1,232(a0)
 3d8:	6564                	ld	s1,200(a0)
 3da:	7379732f          	0x7379732f
 3de:	0000                	unimp
 3e0:	6972706b          	0x6972706b
 3e4:	746e                	ld	s0,248(sp)
 3e6:	2e66                	fld	ft8,88(sp)
 3e8:	00000063          	beqz	zero,3e8 <_prog_start-0x7ffffc18>
 3ec:	6b00                	ld	s0,16(a4)
 3ee:	7270                	ld	a2,224(a2)
 3f0:	6e69                	lui	t3,0x1a
 3f2:	6674                	ld	a3,200(a2)
 3f4:	682e                	ld	a6,200(sp)
 3f6:	0100                	addi	s0,sp,128
 3f8:	0000                	unimp
 3fa:	61647473          	csrrci	s0,0x616,8
 3fe:	6772                	ld	a4,280(sp)
 400:	682e                	ld	a6,200(sp)
 402:	0200                	addi	s0,sp,256
 404:	0000                	unimp
 406:	645f 6665 7561      	0x75616665645f
 40c:	746c                	ld	a1,232(s0)
 40e:	745f 7079 7365      	0x73657079745f
 414:	682e                	ld	a6,200(sp)
 416:	0300                	addi	s0,sp,384
 418:	0000                	unimp
 41a:	735f 6474 6e69      	0x6e696474735f
 420:	2e74                	fld	fa3,216(a2)
 422:	0068                	addi	a0,sp,12
 424:	0004                	0x4
 426:	0000                	unimp
 428:	0105                	addi	sp,sp,1
 42a:	0900                	addi	s0,sp,144
 42c:	bc02                	fsd	ft0,56(sp)
 42e:	0000                	unimp
 430:	0080                	addi	s0,sp,64
 432:	0000                	unimp
 434:	0300                	addi	s0,sp,384
 436:	0115                	addi	sp,sp,5
 438:	0205                	addi	tp,tp,1
 43a:	00090103          	lb	sp,0(s2) # b000 <_prog_start-0x7fff5000>
 43e:	0100                	addi	s0,sp,128
 440:	00090103          	lb	sp,0(s2)
 444:	0100                	addi	s0,sp,128
 446:	0705                	addi	a4,a4,1
 448:	00090003          	lb	zero,0(s2)
 44c:	0100                	addi	s0,sp,128
 44e:	1205                	addi	tp,tp,-31
 450:	00090003          	lb	zero,0(s2)
 454:	0100                	addi	s0,sp,128
 456:	0205                	addi	tp,tp,1
 458:	0306                	slli	t1,t1,0x1
 45a:	0900                	addi	s0,sp,144
 45c:	0000                	unimp
 45e:	0401                	addi	s0,s0,0
 460:	0502                	c.slli64	a0
 462:	0309                	addi	t1,t1,2
 464:	0915                	addi	s2,s2,5
 466:	0018                	0x18
 468:	0401                	addi	s0,s0,0
 46a:	0501                	addi	a0,a0,0
 46c:	04020003          	lb	zero,64(tp) # ffffffffffff9040 <end+0xffffffff7fff0040>
 470:	6c030603          	lb	a2,1728(t1) # ffffffffffffd6c0 <end+0xffffffff7fff46c0>
 474:	0409                	addi	s0,s0,2
 476:	0100                	addi	s0,sp,128
 478:	0505                	addi	a0,a0,1
 47a:	0200                	addi	s0,sp,256
 47c:	0304                	addi	s1,sp,384
 47e:	0306                	slli	t1,t1,0x1
 480:	0900                	addi	s0,sp,144
 482:	0000                	unimp
 484:	0401                	addi	s0,s0,0
 486:	0502                	c.slli64	a0
 488:	0002                	c.slli64	zero
 48a:	0402                	c.slli64	s0
 48c:	10030603          	lb	a2,256(t1)
 490:	0409                	addi	s0,s0,2
 492:	0100                	addi	s0,sp,128
 494:	0200                	addi	s0,sp,256
 496:	0304                	addi	s1,sp,384
 498:	00090103          	lb	sp,0(s2)
 49c:	0100                	addi	s0,sp,128
 49e:	0200                	addi	s0,sp,256
 4a0:	0304                	addi	s1,sp,384
 4a2:	00090203          	lb	tp,0(s2)
 4a6:	0100                	addi	s0,sp,128
 4a8:	0805                	addi	a6,a6,1
 4aa:	0200                	addi	s0,sp,256
 4ac:	0304                	addi	s1,sp,384
 4ae:	00090003          	lb	zero,0(s2)
 4b2:	0100                	addi	s0,sp,128
 4b4:	0305                	addi	t1,t1,1
 4b6:	00090103          	lb	sp,0(s2)
 4ba:	0100                	addi	s0,sp,128
 4bc:	0905                	addi	s2,s2,1
 4be:	0306                	slli	t1,t1,0x1
 4c0:	0900                	addi	s0,sp,144
 4c2:	0000                	unimp
 4c4:	0501                	addi	a0,a0,0
 4c6:	0308                	addi	a0,sp,384
 4c8:	097f                	0x97f
 4ca:	0004                	0x4
 4cc:	0501                	addi	a0,a0,0
 4ce:	0309                	addi	t1,t1,2
 4d0:	0901                	addi	s2,s2,0
 4d2:	0004                	0x4
 4d4:	0501                	addi	a0,a0,0
 4d6:	0608                	addi	a0,sp,768
 4d8:	04097f03          	0x4097f03
 4dc:	0100                	addi	s0,sp,128
 4de:	0205                	addi	tp,tp,1
 4e0:	04090403          	lb	s0,64(s2)
 4e4:	0100                	addi	s0,sp,128
 4e6:	0d05                	addi	s10,s10,1
 4e8:	0306                	slli	t1,t1,0x1
 4ea:	0900                	addi	s0,sp,144
 4ec:	0000                	unimp
 4ee:	0401                	addi	s0,s0,0
 4f0:	0501                	addi	a0,a0,0
 4f2:	061d                	addi	a2,a2,7
 4f4:	04096803          	lwu	a6,64(s2)
 4f8:	0100                	addi	s0,sp,128
 4fa:	1205                	addi	tp,tp,-31
 4fc:	00090003          	lb	zero,0(s2)
 500:	0100                	addi	s0,sp,128
 502:	0205                	addi	tp,tp,1
 504:	0306                	slli	t1,t1,0x1
 506:	0900                	addi	s0,sp,144
 508:	0000                	unimp
 50a:	0501                	addi	a0,a0,0
 50c:	0301                	addi	t1,t1,0
 50e:	00040903          	lb	s2,0(s0) # 18000 <_prog_start-0x7ffe8000>
 512:	0601                	addi	a2,a2,0
 514:	04090303          	lb	t1,64(s2)
 518:	0100                	addi	s0,sp,128
 51a:	0205                	addi	tp,tp,1
 51c:	00090103          	lb	sp,0(s2)
 520:	0100                	addi	s0,sp,128
 522:	00090103          	lb	sp,0(s2)
 526:	0100                	addi	s0,sp,128
 528:	0705                	addi	a4,a4,1
 52a:	00090003          	lb	zero,0(s2)
 52e:	0100                	addi	s0,sp,128
 530:	1205                	addi	tp,tp,-31
 532:	00090003          	lb	zero,0(s2)
 536:	0100                	addi	s0,sp,128
 538:	0205                	addi	tp,tp,1
 53a:	0306                	slli	t1,t1,0x1
 53c:	0900                	addi	s0,sp,144
 53e:	0000                	unimp
 540:	0401                	addi	s0,s0,0
 542:	0502                	c.slli64	a0
 544:	097c0303          	lb	t1,151(s8) # 19097 <_prog_start-0x7ffe6f69>
 548:	0018                	0x18
 54a:	0401                	addi	s0,s0,0
 54c:	0001                	nop
 54e:	0402                	c.slli64	s0
 550:	05030603          	lb	a2,80(t1)
 554:	0409                	addi	s0,s0,2
 556:	0100                	addi	s0,sp,128
 558:	0b05                	addi	s6,s6,1
 55a:	0200                	addi	s0,sp,256
 55c:	0304                	addi	s1,sp,384
 55e:	0306                	slli	t1,t1,0x1
 560:	0900                	addi	s0,sp,144
 562:	0004                	0x4
 564:	0401                	addi	s0,s0,0
 566:	0502                	c.slli64	a0
 568:	0002                	c.slli64	zero
 56a:	0402                	c.slli64	s0
 56c:	77030603          	lb	a2,1904(t1)
 570:	0409                	addi	s0,s0,2
 572:	0100                	addi	s0,sp,128
 574:	00090203          	lb	tp,0(s2)
 578:	0100                	addi	s0,sp,128
 57a:	00090103          	lb	sp,0(s2)
 57e:	0100                	addi	s0,sp,128
 580:	0305                	addi	t1,t1,1
 582:	00090103          	lb	sp,0(s2)
 586:	0100                	addi	s0,sp,128
 588:	0a05                	addi	s4,s4,1
 58a:	04090403          	lb	s0,64(s2)
 58e:	0100                	addi	s0,sp,128
 590:	0205                	addi	tp,tp,1
 592:	0306                	slli	t1,t1,0x1
 594:	0900                	addi	s0,sp,144
 596:	0000                	unimp
 598:	0401                	addi	s0,s0,0
 59a:	0501                	addi	a0,a0,0
 59c:	001d                	c.nop	7
 59e:	0402                	c.slli64	s0
 5a0:	00030603          	lb	a2,0(t1)
 5a4:	0809                	addi	a6,a6,2
 5a6:	0100                	addi	s0,sp,128
 5a8:	1205                	addi	tp,tp,-31
 5aa:	0200                	addi	s0,sp,256
 5ac:	0304                	addi	s1,sp,384
 5ae:	00090003          	lb	zero,0(s2)
 5b2:	0100                	addi	s0,sp,128
 5b4:	0205                	addi	tp,tp,1
 5b6:	0200                	addi	s0,sp,256
 5b8:	0304                	addi	s1,sp,384
 5ba:	0306                	slli	t1,t1,0x1
 5bc:	0900                	addi	s0,sp,144
 5be:	0000                	unimp
 5c0:	0501                	addi	a0,a0,0
 5c2:	0301                	addi	t1,t1,0
 5c4:	00040903          	lb	s2,0(s0)
 5c8:	0601                	addi	a2,a2,0
 5ca:	04090303          	lb	t1,64(s2)
 5ce:	0100                	addi	s0,sp,128
 5d0:	0205                	addi	tp,tp,1
 5d2:	00090103          	lb	sp,0(s2)
 5d6:	0100                	addi	s0,sp,128
 5d8:	00096303          	lwu	t1,0(s2)
 5dc:	0100                	addi	s0,sp,128
 5de:	00090103          	lb	sp,0(s2)
 5e2:	0100                	addi	s0,sp,128
 5e4:	0905                	addi	s2,s2,1
 5e6:	00090003          	lb	zero,0(s2)
 5ea:	0100                	addi	s0,sp,128
 5ec:	0c05                	addi	s8,s8,1
 5ee:	0306                	slli	t1,t1,0x1
 5f0:	0900                	addi	s0,sp,144
 5f2:	0000                	unimp
 5f4:	0501                	addi	a0,a0,0
 5f6:	0302                	c.slli64	t1
 5f8:	0900                	addi	s0,sp,144
 5fa:	0004                	0x4
 5fc:	0401                	addi	s0,s0,0
 5fe:	0502                	c.slli64	a0
 600:	09110303          	lb	t1,145(sp)
 604:	0004                	0x4
 606:	0501                	addi	a0,a0,0
 608:	0602                	c.slli64	a2
 60a:	04097e03          	0x4097e03
 60e:	0100                	addi	s0,sp,128
 610:	00090103          	lb	sp,0(s2)
 614:	0100                	addi	s0,sp,128
 616:	0305                	addi	t1,t1,1
 618:	00090103          	lb	sp,0(s2)
 61c:	0100                	addi	s0,sp,128
 61e:	0a05                	addi	s4,s4,1
 620:	04090403          	lb	s0,64(s2)
 624:	0100                	addi	s0,sp,128
 626:	0205                	addi	tp,tp,1
 628:	0306                	slli	t1,t1,0x1
 62a:	0900                	addi	s0,sp,144
 62c:	0000                	unimp
 62e:	0401                	addi	s0,s0,0
 630:	0501                	addi	a0,a0,0
 632:	6b03061b          	addiw	a2,t1,1712
 636:	0809                	addi	a6,a6,2
 638:	0100                	addi	s0,sp,128
 63a:	0c05                	addi	s8,s8,1
 63c:	0306                	slli	t1,t1,0x1
 63e:	0900                	addi	s0,sp,144
 640:	0000                	unimp
 642:	0501                	addi	a0,a0,0
 644:	031c                	addi	a5,sp,384
 646:	0900                	addi	s0,sp,144
 648:	0004                	0x4
 64a:	0501                	addi	a0,a0,0
 64c:	0609                	addi	a2,a2,2
 64e:	04090003          	lb	zero,64(s2)
 652:	0100                	addi	s0,sp,128
 654:	0205                	addi	tp,tp,1
 656:	0306                	slli	t1,t1,0x1
 658:	0900                	addi	s0,sp,144
 65a:	0000                	unimp
 65c:	0401                	addi	s0,s0,0
 65e:	0502                	c.slli64	a0
 660:	09110303          	lb	t1,145(sp)
 664:	0004                	0x4
 666:	0501                	addi	a0,a0,0
 668:	0602                	c.slli64	a2
 66a:	08097e03          	0x8097e03
 66e:	0100                	addi	s0,sp,128
 670:	00090103          	lb	sp,0(s2)
 674:	0100                	addi	s0,sp,128
 676:	0305                	addi	t1,t1,1
 678:	00090103          	lb	sp,0(s2)
 67c:	0100                	addi	s0,sp,128
 67e:	0a05                	addi	s4,s4,1
 680:	04090403          	lb	s0,64(s2)
 684:	0100                	addi	s0,sp,128
 686:	0205                	addi	tp,tp,1
 688:	0306                	slli	t1,t1,0x1
 68a:	0900                	addi	s0,sp,144
 68c:	0000                	unimp
 68e:	0401                	addi	s0,s0,0
 690:	0501                	addi	a0,a0,0
 692:	0301                	addi	t1,t1,0
 694:	0909                	addi	s2,s2,2
 696:	0008                	0x8
 698:	0501                	addi	a0,a0,0
 69a:	0614                	addi	a3,sp,768
 69c:	04090203          	lb	tp,64(s2)
 6a0:	0100                	addi	s0,sp,128
 6a2:	0205                	addi	tp,tp,1
 6a4:	00090103          	lb	sp,0(s2)
 6a8:	0100                	addi	s0,sp,128
 6aa:	00096503          	lwu	a0,0(s2)
 6ae:	0100                	addi	s0,sp,128
 6b0:	0204                	addi	s1,sp,256
 6b2:	0905                	addi	s2,s2,1
 6b4:	0306                	slli	t1,t1,0x1
 6b6:	091c                	addi	a5,sp,144
 6b8:	0000                	unimp
 6ba:	0401                	addi	s0,s0,0
 6bc:	0501                	addi	a0,a0,0
 6be:	0302                	c.slli64	t1
 6c0:	0964                	addi	s1,sp,156
 6c2:	0004                	0x4
 6c4:	0401                	addi	s0,s0,0
 6c6:	0502                	c.slli64	a0
 6c8:	1c030603          	lb	a2,448(t1)
 6cc:	0409                	addi	s0,s0,2
 6ce:	0100                	addi	s0,sp,128
 6d0:	0905                	addi	s2,s2,1
 6d2:	0306                	slli	t1,t1,0x1
 6d4:	0900                	addi	s0,sp,144
 6d6:	0000                	unimp
 6d8:	0501                	addi	a0,a0,0
 6da:	0308                	addi	a0,sp,384
 6dc:	097f                	0x97f
 6de:	0004                	0x4
 6e0:	0501                	addi	a0,a0,0
 6e2:	0309                	addi	t1,t1,2
 6e4:	0901                	addi	s2,s2,0
 6e6:	0004                	0x4
 6e8:	0501                	addi	a0,a0,0
 6ea:	0608                	addi	a0,sp,768
 6ec:	04097f03          	0x4097f03
 6f0:	0100                	addi	s0,sp,128
 6f2:	0104                	addi	s1,sp,128
 6f4:	2505                	addiw	a0,a0,1
 6f6:	04096503          	lwu	a0,64(s2)
 6fa:	0100                	addi	s0,sp,128
 6fc:	2105                	addiw	sp,sp,1
 6fe:	00090003          	lb	zero,0(s2)
 702:	0100                	addi	s0,sp,128
 704:	0204                	addi	s1,sp,256
 706:	0205                	addi	tp,tp,1
 708:	00091f03          	lh	t5,0(s2)
 70c:	0100                	addi	s0,sp,128
 70e:	0d05                	addi	s10,s10,1
 710:	0306                	slli	t1,t1,0x1
 712:	0900                	addi	s0,sp,144
 714:	0000                	unimp
 716:	0401                	addi	s0,s0,0
 718:	0301                	addi	t1,t1,0
 71a:	0961                	addi	s2,s2,24
 71c:	0004                	0x4
 71e:	0501                	addi	a0,a0,0
 720:	0302                	c.slli64	t1
 722:	0900                	addi	s0,sp,144
 724:	0004                	0x4
 726:	0501                	addi	a0,a0,0
 728:	0322                	slli	t1,t1,0x8
 72a:	0900                	addi	s0,sp,144
 72c:	0004                	0x4
 72e:	0501                	addi	a0,a0,0
 730:	0609                	addi	a2,a2,2
 732:	04090003          	lb	zero,64(s2)
 736:	0100                	addi	s0,sp,128
 738:	0204                	addi	s1,sp,256
 73a:	0205                	addi	tp,tp,1
 73c:	00091803          	lh	a6,0(s2)
 740:	0100                	addi	s0,sp,128
 742:	00090103          	lb	sp,0(s2)
 746:	0100                	addi	s0,sp,128
 748:	00090203          	lb	tp,0(s2)
 74c:	0100                	addi	s0,sp,128
 74e:	0805                	addi	a6,a6,1
 750:	00090003          	lb	zero,0(s2)
 754:	0100                	addi	s0,sp,128
 756:	0104                	addi	s1,sp,128
 758:	0205                	addi	tp,tp,1
 75a:	04096603          	lwu	a2,64(s2)
 75e:	0100                	addi	s0,sp,128
 760:	0505                	addi	a0,a0,1
 762:	0306                	slli	t1,t1,0x1
 764:	0900                	addi	s0,sp,144
 766:	0000                	unimp
 768:	0501                	addi	a0,a0,0
 76a:	0301                	addi	t1,t1,0
 76c:	0004091b          	sext.w	s2,s0
 770:	0501                	addi	a0,a0,0
 772:	0620                	addi	s0,sp,776
 774:	04090203          	lb	tp,64(s2)
 778:	0100                	addi	s0,sp,128
 77a:	0205                	addi	tp,tp,1
 77c:	00090103          	lb	sp,0(s2)
 780:	0100                	addi	s0,sp,128
 782:	0204                	addi	s1,sp,256
 784:	0305                	addi	t1,t1,1
 786:	0306                	slli	t1,t1,0x1
 788:	096c                	addi	a1,sp,156
 78a:	002c                	addi	a1,sp,8
 78c:	0501                	addi	a0,a0,0
 78e:	0602                	c.slli64	a2
 790:	08097e03          	0x8097e03
 794:	0100                	addi	s0,sp,128
 796:	00090103          	lb	sp,0(s2)
 79a:	0100                	addi	s0,sp,128
 79c:	0305                	addi	t1,t1,1
 79e:	00090103          	lb	sp,0(s2)
 7a2:	0100                	addi	s0,sp,128
 7a4:	0a05                	addi	s4,s4,1
 7a6:	04090403          	lb	s0,64(s2)
 7aa:	0100                	addi	s0,sp,128
 7ac:	0205                	addi	tp,tp,1
 7ae:	0306                	slli	t1,t1,0x1
 7b0:	0900                	addi	s0,sp,144
 7b2:	0000                	unimp
 7b4:	0401                	addi	s0,s0,0
 7b6:	0501                	addi	a0,a0,0
 7b8:	0301                	addi	t1,t1,0
 7ba:	0938                	addi	a4,sp,152
 7bc:	0008                	0x8
 7be:	0401                	addi	s0,s0,0
 7c0:	0502                	c.slli64	a0
 7c2:	09440303          	lb	t1,148(s0)
 7c6:	0004                	0x4
 7c8:	0501                	addi	a0,a0,0
 7ca:	0602                	c.slli64	a2
 7cc:	08097e03          	0x8097e03
 7d0:	0100                	addi	s0,sp,128
 7d2:	00090103          	lb	sp,0(s2)
 7d6:	0100                	addi	s0,sp,128
 7d8:	0305                	addi	t1,t1,1
 7da:	00090103          	lb	sp,0(s2)
 7de:	0100                	addi	s0,sp,128
 7e0:	0a05                	addi	s4,s4,1
 7e2:	04090403          	lb	s0,64(s2)
 7e6:	0100                	addi	s0,sp,128
 7e8:	0205                	addi	tp,tp,1
 7ea:	0306                	slli	t1,t1,0x1
 7ec:	0900                	addi	s0,sp,144
 7ee:	0000                	unimp
 7f0:	0501                	addi	a0,a0,0
 7f2:	097c0303          	lb	t1,151(s8)
 7f6:	000c                	0xc
 7f8:	0501                	addi	a0,a0,0
 7fa:	0602                	c.slli64	a2
 7fc:	08097e03          	0x8097e03
 800:	0100                	addi	s0,sp,128
 802:	00090103          	lb	sp,0(s2)
 806:	0100                	addi	s0,sp,128
 808:	0305                	addi	t1,t1,1
 80a:	00090103          	lb	sp,0(s2)
 80e:	0100                	addi	s0,sp,128
 810:	0a05                	addi	s4,s4,1
 812:	04090403          	lb	s0,64(s2)
 816:	0100                	addi	s0,sp,128
 818:	0205                	addi	tp,tp,1
 81a:	0306                	slli	t1,t1,0x1
 81c:	0900                	addi	s0,sp,144
 81e:	0000                	unimp
 820:	0501                	addi	a0,a0,0
 822:	097c0303          	lb	t1,151(s8)
 826:	000c                	0xc
 828:	0501                	addi	a0,a0,0
 82a:	0602                	c.slli64	a2
 82c:	08097e03          	0x8097e03
 830:	0100                	addi	s0,sp,128
 832:	00090103          	lb	sp,0(s2)
 836:	0100                	addi	s0,sp,128
 838:	0305                	addi	t1,t1,1
 83a:	00090103          	lb	sp,0(s2)
 83e:	0100                	addi	s0,sp,128
 840:	0a05                	addi	s4,s4,1
 842:	04090403          	lb	s0,64(s2)
 846:	0100                	addi	s0,sp,128
 848:	0205                	addi	tp,tp,1
 84a:	0306                	slli	t1,t1,0x1
 84c:	0900                	addi	s0,sp,144
 84e:	0000                	unimp
 850:	0501                	addi	a0,a0,0
 852:	097c0303          	lb	t1,151(s8)
 856:	000c                	0xc
 858:	0501                	addi	a0,a0,0
 85a:	0602                	c.slli64	a2
 85c:	08097e03          	0x8097e03
 860:	0100                	addi	s0,sp,128
 862:	00090103          	lb	sp,0(s2)
 866:	0100                	addi	s0,sp,128
 868:	0305                	addi	t1,t1,1
 86a:	00090103          	lb	sp,0(s2)
 86e:	0100                	addi	s0,sp,128
 870:	0a05                	addi	s4,s4,1
 872:	04090403          	lb	s0,64(s2)
 876:	0100                	addi	s0,sp,128
 878:	0205                	addi	tp,tp,1
 87a:	0306                	slli	t1,t1,0x1
 87c:	0900                	addi	s0,sp,144
 87e:	0000                	unimp
 880:	0501                	addi	a0,a0,0
 882:	097c0303          	lb	t1,151(s8)
 886:	000c                	0xc
 888:	0501                	addi	a0,a0,0
 88a:	0602                	c.slli64	a2
 88c:	08097e03          	0x8097e03
 890:	0100                	addi	s0,sp,128
 892:	00090103          	lb	sp,0(s2)
 896:	0100                	addi	s0,sp,128
 898:	0305                	addi	t1,t1,1
 89a:	00090103          	lb	sp,0(s2)
 89e:	0100                	addi	s0,sp,128
 8a0:	0a05                	addi	s4,s4,1
 8a2:	04090403          	lb	s0,64(s2)
 8a6:	0100                	addi	s0,sp,128
 8a8:	0205                	addi	tp,tp,1
 8aa:	0306                	slli	t1,t1,0x1
 8ac:	0900                	addi	s0,sp,144
 8ae:	0000                	unimp
 8b0:	0501                	addi	a0,a0,0
 8b2:	097c0303          	lb	t1,151(s8)
 8b6:	000c                	0xc
 8b8:	0501                	addi	a0,a0,0
 8ba:	0602                	c.slli64	a2
 8bc:	08097e03          	0x8097e03
 8c0:	0100                	addi	s0,sp,128
 8c2:	00090103          	lb	sp,0(s2)
 8c6:	0100                	addi	s0,sp,128
 8c8:	0305                	addi	t1,t1,1
 8ca:	00090103          	lb	sp,0(s2)
 8ce:	0100                	addi	s0,sp,128
 8d0:	0a05                	addi	s4,s4,1
 8d2:	04090403          	lb	s0,64(s2)
 8d6:	0100                	addi	s0,sp,128
 8d8:	0205                	addi	tp,tp,1
 8da:	0306                	slli	t1,t1,0x1
 8dc:	0900                	addi	s0,sp,144
 8de:	0000                	unimp
 8e0:	0501                	addi	a0,a0,0
 8e2:	097c0303          	lb	t1,151(s8)
 8e6:	000c                	0xc
 8e8:	0501                	addi	a0,a0,0
 8ea:	0602                	c.slli64	a2
 8ec:	08097e03          	0x8097e03
 8f0:	0100                	addi	s0,sp,128
 8f2:	00090103          	lb	sp,0(s2)
 8f6:	0100                	addi	s0,sp,128
 8f8:	0305                	addi	t1,t1,1
 8fa:	00090103          	lb	sp,0(s2)
 8fe:	0100                	addi	s0,sp,128
 900:	0a05                	addi	s4,s4,1
 902:	04090403          	lb	s0,64(s2)
 906:	0100                	addi	s0,sp,128
 908:	0205                	addi	tp,tp,1
 90a:	0306                	slli	t1,t1,0x1
 90c:	0900                	addi	s0,sp,144
 90e:	0000                	unimp
 910:	0501                	addi	a0,a0,0
 912:	097c0303          	lb	t1,151(s8)
 916:	000c                	0xc
 918:	0501                	addi	a0,a0,0
 91a:	0602                	c.slli64	a2
 91c:	08097e03          	0x8097e03
 920:	0100                	addi	s0,sp,128
 922:	00090103          	lb	sp,0(s2)
 926:	0100                	addi	s0,sp,128
 928:	0305                	addi	t1,t1,1
 92a:	00090103          	lb	sp,0(s2)
 92e:	0100                	addi	s0,sp,128
 930:	0a05                	addi	s4,s4,1
 932:	04090403          	lb	s0,64(s2)
 936:	0100                	addi	s0,sp,128
 938:	0205                	addi	tp,tp,1
 93a:	0306                	slli	t1,t1,0x1
 93c:	0900                	addi	s0,sp,144
 93e:	0000                	unimp
 940:	0501                	addi	a0,a0,0
 942:	097c0303          	lb	t1,151(s8)
 946:	000c                	0xc
 948:	0501                	addi	a0,a0,0
 94a:	0602                	c.slli64	a2
 94c:	08097e03          	0x8097e03
 950:	0100                	addi	s0,sp,128
 952:	00090103          	lb	sp,0(s2)
 956:	0100                	addi	s0,sp,128
 958:	0305                	addi	t1,t1,1
 95a:	00090103          	lb	sp,0(s2)
 95e:	0100                	addi	s0,sp,128
 960:	0a05                	addi	s4,s4,1
 962:	04090403          	lb	s0,64(s2)
 966:	0100                	addi	s0,sp,128
 968:	0205                	addi	tp,tp,1
 96a:	0306                	slli	t1,t1,0x1
 96c:	0900                	addi	s0,sp,144
 96e:	0000                	unimp
 970:	0501                	addi	a0,a0,0
 972:	097c0303          	lb	t1,151(s8)
 976:	000c                	0xc
 978:	0501                	addi	a0,a0,0
 97a:	0602                	c.slli64	a2
 97c:	08097e03          	0x8097e03
 980:	0100                	addi	s0,sp,128
 982:	00090103          	lb	sp,0(s2)
 986:	0100                	addi	s0,sp,128
 988:	0305                	addi	t1,t1,1
 98a:	00090103          	lb	sp,0(s2)
 98e:	0100                	addi	s0,sp,128
 990:	0a05                	addi	s4,s4,1
 992:	04090403          	lb	s0,64(s2)
 996:	0100                	addi	s0,sp,128
 998:	0205                	addi	tp,tp,1
 99a:	0306                	slli	t1,t1,0x1
 99c:	0900                	addi	s0,sp,144
 99e:	0000                	unimp
 9a0:	0501                	addi	a0,a0,0
 9a2:	097c0303          	lb	t1,151(s8)
 9a6:	000c                	0xc
 9a8:	0501                	addi	a0,a0,0
 9aa:	0602                	c.slli64	a2
 9ac:	08097e03          	0x8097e03
 9b0:	0100                	addi	s0,sp,128
 9b2:	00090103          	lb	sp,0(s2)
 9b6:	0100                	addi	s0,sp,128
 9b8:	0305                	addi	t1,t1,1
 9ba:	00090103          	lb	sp,0(s2)
 9be:	0100                	addi	s0,sp,128
 9c0:	0a05                	addi	s4,s4,1
 9c2:	04090403          	lb	s0,64(s2)
 9c6:	0100                	addi	s0,sp,128
 9c8:	0205                	addi	tp,tp,1
 9ca:	0306                	slli	t1,t1,0x1
 9cc:	0900                	addi	s0,sp,144
 9ce:	0000                	unimp
 9d0:	0401                	addi	s0,s0,0
 9d2:	0501                	addi	a0,a0,0
 9d4:	0601                	addi	a2,a2,0
 9d6:	0c093b03          	ld	s6,192(s2)
 9da:	0100                	addi	s0,sp,128
 9dc:	0205                	addi	tp,tp,1
 9de:	00090103          	lb	sp,0(s2)
 9e2:	0100                	addi	s0,sp,128
 9e4:	00090103          	lb	sp,0(s2)
 9e8:	0100                	addi	s0,sp,128
 9ea:	00090103          	lb	sp,0(s2)
 9ee:	0100                	addi	s0,sp,128
 9f0:	00090203          	lb	tp,0(s2)
 9f4:	0100                	addi	s0,sp,128
 9f6:	0105                	addi	sp,sp,1
 9f8:	0306                	slli	t1,t1,0x1
 9fa:	0000097b          	0x97b
 9fe:	0301                	addi	t1,t1,0
 a00:	0900                	addi	s0,sp,144
 a02:	0034                	addi	a3,sp,8
 a04:	0501                	addi	a0,a0,0
 a06:	030c                	addi	a1,sp,384
 a08:	0909                	addi	s2,s2,2
 a0a:	0018                	0x18
 a0c:	0501                	addi	a0,a0,0
 a0e:	0302                	c.slli64	t1
 a10:	097c                	addi	a5,sp,156
 a12:	0004                	0x4
 a14:	0601                	addi	a2,a2,0
 a16:	08090103          	lb	sp,128(s2)
 a1a:	0100                	addi	s0,sp,128
 a1c:	00090103          	lb	sp,0(s2)
 a20:	0100                	addi	s0,sp,128
 a22:	00090103          	lb	sp,0(s2)
 a26:	0100                	addi	s0,sp,128
 a28:	00090103          	lb	sp,0(s2)
 a2c:	0100                	addi	s0,sp,128
 a2e:	0805                	addi	a6,a6,1
 a30:	00090003          	lb	zero,0(s2)
 a34:	0100                	addi	s0,sp,128
 a36:	0d05                	addi	s10,s10,1
 a38:	0306                	slli	t1,t1,0x1
 a3a:	0924                	addi	s1,sp,152
 a3c:	0018                	0x18
 a3e:	0301                	addi	t1,t1,0
 a40:	0902                	c.slli64	s2
 a42:	0004                	0x4
 a44:	0401                	addi	s0,s0,0
 a46:	0502                	c.slli64	a0
 a48:	7f920303          	lb	t1,2041(tp) # 7f9 <_prog_start-0x7ffff807>
 a4c:	0409                	addi	s0,s0,2
 a4e:	0100                	addi	s0,sp,128
 a50:	0104                	addi	s1,sp,128
 a52:	0605                	addi	a2,a2,1
 a54:	0900de03          	lhu	t3,144(ra)
 a58:	0010                	0x10
 a5a:	0501                	addi	a0,a0,0
 a5c:	6b030603          	lb	a2,1712(t1)
 a60:	0409                	addi	s0,s0,2
 a62:	0100                	addi	s0,sp,128
 a64:	0605                	addi	a2,a2,1
 a66:	0306                	slli	t1,t1,0x1
 a68:	0900                	addi	s0,sp,144
 a6a:	0000                	unimp
 a6c:	0501                	addi	a0,a0,0
 a6e:	060a                	slli	a2,a2,0x2
 a70:	04092303          	lw	t1,64(s2)
 a74:	0100                	addi	s0,sp,128
 a76:	0d05                	addi	s10,s10,1
 a78:	0306                	slli	t1,t1,0x1
 a7a:	0900                	addi	s0,sp,144
 a7c:	0000                	unimp
 a7e:	0501                	addi	a0,a0,0
 a80:	060a                	slli	a2,a2,0x2
 a82:	04090203          	lb	tp,64(s2)
 a86:	0100                	addi	s0,sp,128
 a88:	0d05                	addi	s10,s10,1
 a8a:	0306                	slli	t1,t1,0x1
 a8c:	0900                	addi	s0,sp,144
 a8e:	0000                	unimp
 a90:	0401                	addi	s0,s0,0
 a92:	0502                	c.slli64	a0
 a94:	0602                	c.slli64	a2
 a96:	097f9003          	lh	zero,151(t6)
 a9a:	0004                	0x4
 a9c:	0301                	addi	t1,t1,0
 a9e:	0901                	addi	s2,s2,0
 aa0:	0000                	unimp
 aa2:	0501                	addi	a0,a0,0
 aa4:	09010303          	lb	t1,144(sp)
 aa8:	0000                	unimp
 aaa:	0501                	addi	a0,a0,0
 aac:	030a                	slli	t1,t1,0x2
 aae:	0904                	addi	s1,sp,144
 ab0:	0004                	0x4
 ab2:	0501                	addi	a0,a0,0
 ab4:	0602                	c.slli64	a2
 ab6:	00090003          	lb	zero,0(s2)
 aba:	0100                	addi	s0,sp,128
 abc:	0104                	addi	s1,sp,128
 abe:	0805                	addi	a6,a6,1
 ac0:	0306                	slli	t1,t1,0x1
 ac2:	00c4                	addi	s1,sp,68
 ac4:	0809                	addi	a6,a6,2
 ac6:	0100                	addi	s0,sp,128
 ac8:	0c05                	addi	s8,s8,1
 aca:	0306                	slli	t1,t1,0x1
 acc:	0900                	addi	s0,sp,144
 ace:	0000                	unimp
 ad0:	0501                	addi	a0,a0,0
 ad2:	0312                	slli	t1,t1,0x4
 ad4:	0900                	addi	s0,sp,144
 ad6:	0004                	0x4
 ad8:	0501                	addi	a0,a0,0
 ada:	0308                	addi	a0,sp,384
 adc:	0900                	addi	s0,sp,144
 ade:	0004                	0x4
 ae0:	0501                	addi	a0,a0,0
 ae2:	0312                	slli	t1,t1,0x4
 ae4:	0900                	addi	s0,sp,144
 ae6:	0008                	0x8
 ae8:	0501                	addi	a0,a0,0
 aea:	01030603          	lb	a2,16(t1)
 aee:	0409                	addi	s0,s0,2
 af0:	0100                	addi	s0,sp,128
 af2:	0605                	addi	a2,a2,1
 af4:	0306                	slli	t1,t1,0x1
 af6:	0900                	addi	s0,sp,144
 af8:	0000                	unimp
 afa:	0501                	addi	a0,a0,0
 afc:	0604                	addi	s1,sp,768
 afe:	04090103          	lb	sp,64(s2)
 b02:	0100                	addi	s0,sp,128
 b04:	0c05                	addi	s8,s8,1
 b06:	0306                	slli	t1,t1,0x1
 b08:	097e                	slli	s2,s2,0x1f
 b0a:	0020                	addi	s0,sp,8
 b0c:	0501                	addi	a0,a0,0
 b0e:	0306                	slli	t1,t1,0x1
 b10:	0901                	addi	s2,s2,0
 b12:	0004                	0x4
 b14:	0501                	addi	a0,a0,0
 b16:	0608                	addi	a0,sp,768
 b18:	04097f03          	0x4097f03
 b1c:	0100                	addi	s0,sp,128
 b1e:	1205                	addi	tp,tp,-31
 b20:	0306                	slli	t1,t1,0x1
 b22:	0900                	addi	s0,sp,144
 b24:	0000                	unimp
 b26:	0501                	addi	a0,a0,0
 b28:	0308                	addi	a0,sp,384
 b2a:	0900                	addi	s0,sp,144
 b2c:	0004                	0x4
 b2e:	0501                	addi	a0,a0,0
 b30:	0301                	addi	t1,t1,0
 b32:	092d                	addi	s2,s2,11
 b34:	0004                	0x4
 b36:	0501                	addi	a0,a0,0
 b38:	030d                	addi	t1,t1,3
 b3a:	095a                	slli	s2,s2,0x16
 b3c:	0034                	addi	a3,sp,8
 b3e:	0501                	addi	a0,a0,0
 b40:	0605                	addi	a2,a2,1
 b42:	08090303          	lb	t1,128(s2)
 b46:	0100                	addi	s0,sp,128
 b48:	00090103          	lb	sp,0(s2)
 b4c:	0100                	addi	s0,sp,128
 b4e:	00090103          	lb	sp,0(s2)
 b52:	0100                	addi	s0,sp,128
 b54:	0805                	addi	a6,a6,1
 b56:	0306                	slli	t1,t1,0x1
 b58:	0900                	addi	s0,sp,144
 b5a:	0008                	0x8
 b5c:	0501                	addi	a0,a0,0
 b5e:	0606                	slli	a2,a2,0x1
 b60:	04090403          	lb	s0,64(s2)
 b64:	0100                	addi	s0,sp,128
 b66:	0a05                	addi	s4,s4,1
 b68:	0306                	slli	t1,t1,0x1
 b6a:	0900                	addi	s0,sp,144
 b6c:	0000                	unimp
 b6e:	0501                	addi	a0,a0,0
 b70:	0308                	addi	a0,sp,384
 b72:	0900                	addi	s0,sp,144
 b74:	0004                	0x4
 b76:	0501                	addi	a0,a0,0
 b78:	0606                	slli	a2,a2,0x1
 b7a:	04090103          	lb	sp,64(s2)
 b7e:	0100                	addi	s0,sp,128
 b80:	1605                	addi	a2,a2,-31
 b82:	0306                	slli	t1,t1,0x1
 b84:	0900                	addi	s0,sp,144
 b86:	0000                	unimp
 b88:	0501                	addi	a0,a0,0
 b8a:	0606                	slli	a2,a2,0x1
 b8c:	10090303          	lb	t1,256(s2)
 b90:	0100                	addi	s0,sp,128
 b92:	00090103          	lb	sp,0(s2)
 b96:	0100                	addi	s0,sp,128
 b98:	0d05                	addi	s10,s10,1
 b9a:	0306                	slli	t1,t1,0x1
 b9c:	0900                	addi	s0,sp,144
 b9e:	0000                	unimp
 ba0:	0501                	addi	a0,a0,0
 ba2:	0606                	slli	a2,a2,0x1
 ba4:	08090103          	lb	sp,128(s2)
 ba8:	0100                	addi	s0,sp,128
 baa:	0200                	addi	s0,sp,256
 bac:	0104                	addi	s1,sp,128
 bae:	0306                	slli	t1,t1,0x1
 bb0:	0900                	addi	s0,sp,144
 bb2:	0008                	0x8
 bb4:	0401                	addi	s0,s0,0
 bb6:	0502                	c.slli64	a0
 bb8:	0602                	c.slli64	a2
 bba:	097fa003          	lw	zero,151(t6)
 bbe:	0004                	0x4
 bc0:	0301                	addi	t1,t1,0
 bc2:	0901                	addi	s2,s2,0
 bc4:	0000                	unimp
 bc6:	0501                	addi	a0,a0,0
 bc8:	09010303          	lb	t1,144(sp)
 bcc:	0000                	unimp
 bce:	0501                	addi	a0,a0,0
 bd0:	030a                	slli	t1,t1,0x2
 bd2:	0904                	addi	s1,sp,144
 bd4:	0004                	0x4
 bd6:	0501                	addi	a0,a0,0
 bd8:	0602                	c.slli64	a2
 bda:	00090003          	lb	zero,0(s2)
 bde:	0100                	addi	s0,sp,128
 be0:	0104                	addi	s1,sp,128
 be2:	1405                	addi	s0,s0,-31
 be4:	0200                	addi	s0,sp,256
 be6:	0404                	addi	s1,sp,512
 be8:	0306                	slli	t1,t1,0x1
 bea:	080900d7          	0x80900d7
 bee:	0100                	addi	s0,sp,128
 bf0:	1605                	addi	a2,a2,-31
 bf2:	0200                	addi	s0,sp,256
 bf4:	0404                	addi	s1,sp,512
 bf6:	0306                	slli	t1,t1,0x1
 bf8:	0900                	addi	s0,sp,144
 bfa:	0000                	unimp
 bfc:	0501                	addi	a0,a0,0
 bfe:	000c                	0xc
 c00:	0402                	c.slli64	s0
 c02:	0604                	addi	s1,sp,768
 c04:	04090003          	lb	zero,64(s2)
 c08:	0100                	addi	s0,sp,128
 c0a:	0505                	addi	a0,a0,1
 c0c:	0200                	addi	s0,sp,256
 c0e:	0404                	addi	s1,sp,512
 c10:	0306                	slli	t1,t1,0x1
 c12:	0900                	addi	s0,sp,144
 c14:	0000                	unimp
 c16:	0501                	addi	a0,a0,0
 c18:	030c                	addi	a1,sp,384
 c1a:	0910                	addi	a2,sp,144
 c1c:	0004                	0x4
 c1e:	0301                	addi	t1,t1,0
 c20:	097f                	0x97f
 c22:	0004                	0x4
 c24:	0501                	addi	a0,a0,0
 c26:	030e                	slli	t1,t1,0x3
 c28:	097f                	0x97f
 c2a:	0004                	0x4
 c2c:	0501                	addi	a0,a0,0
 c2e:	0605                	addi	a2,a2,1
 c30:	08097d03          	0x8097d03
 c34:	0100                	addi	s0,sp,128
 c36:	0b05                	addi	s6,s6,1
 c38:	0306                	slli	t1,t1,0x1
 c3a:	0900                	addi	s0,sp,144
 c3c:	0000                	unimp
 c3e:	0501                	addi	a0,a0,0
 c40:	0305                	addi	t1,t1,1
 c42:	0900                	addi	s0,sp,144
 c44:	0004                	0x4
 c46:	0401                	addi	s0,s0,0
 c48:	0502                	c.slli64	a0
 c4a:	0602                	c.slli64	a2
 c4c:	097f9603          	lh	a2,151(t6)
 c50:	0004                	0x4
 c52:	0401                	addi	s0,s0,0
 c54:	0501                	addi	a0,a0,0
 c56:	ea03060b          	0xea03060b
 c5a:	0900                	addi	s0,sp,144
 c5c:	0000                	unimp
 c5e:	0401                	addi	s0,s0,0
 c60:	0502                	c.slli64	a0
 c62:	0602                	c.slli64	a2
 c64:	097f9803          	lh	a6,151(t6)
 c68:	0008                	0x8
 c6a:	0301                	addi	t1,t1,0
 c6c:	0901                	addi	s2,s2,0
 c6e:	0000                	unimp
 c70:	0501                	addi	a0,a0,0
 c72:	09010303          	lb	t1,144(sp)
 c76:	0000                	unimp
 c78:	0501                	addi	a0,a0,0
 c7a:	030a                	slli	t1,t1,0x2
 c7c:	0904                	addi	s1,sp,144
 c7e:	0004                	0x4
 c80:	0501                	addi	a0,a0,0
 c82:	0602                	c.slli64	a2
 c84:	00090003          	lb	zero,0(s2)
 c88:	0100                	addi	s0,sp,128
 c8a:	0104                	addi	s1,sp,128
 c8c:	0c05                	addi	s8,s8,1
 c8e:	0900e703          	lwu	a4,144(ra)
 c92:	0008                	0x8
 c94:	0301                	addi	t1,t1,0
 c96:	097f                	0x97f
 c98:	0004                	0x4
 c9a:	0501                	addi	a0,a0,0
 c9c:	030e                	slli	t1,t1,0x3
 c9e:	097f                	0x97f
 ca0:	0004                	0x4
 ca2:	0501                	addi	a0,a0,0
 ca4:	0605                	addi	a2,a2,1
 ca6:	08097a03          	0x8097a03
 caa:	0100                	addi	s0,sp,128
 cac:	0205                	addi	tp,tp,1
 cae:	097f8b03          	lb	s6,151(t6)
 cb2:	0008                	0x8
 cb4:	0301                	addi	t1,t1,0
 cb6:	0901                	addi	s2,s2,0
 cb8:	0000                	unimp
 cba:	0501                	addi	a0,a0,0
 cbc:	0309                	addi	t1,t1,2
 cbe:	0900                	addi	s0,sp,144
 cc0:	0000                	unimp
 cc2:	0501                	addi	a0,a0,0
 cc4:	0605                	addi	a2,a2,1
 cc6:	0900f403          	0x900f403
 cca:	0000                	unimp
 ccc:	0501                	addi	a0,a0,0
 cce:	030c                	addi	a1,sp,384
 cd0:	7f8c                	ld	a1,56(a5)
 cd2:	0809                	addi	a6,a6,2
 cd4:	0100                	addi	s0,sp,128
 cd6:	0205                	addi	tp,tp,1
 cd8:	04090003          	lb	zero,64(s2)
 cdc:	0100                	addi	s0,sp,128
 cde:	0204                	addi	s1,sp,256
 ce0:	0306                	slli	t1,t1,0x1
 ce2:	0004090f          	0x4090f
 ce6:	0301                	addi	t1,t1,0
 ce8:	0901                	addi	s2,s2,0
 cea:	0000                	unimp
 cec:	0501                	addi	a0,a0,0
 cee:	09010303          	lb	t1,144(sp)
 cf2:	0000                	unimp
 cf4:	0501                	addi	a0,a0,0
 cf6:	030a                	slli	t1,t1,0x2
 cf8:	0904                	addi	s1,sp,144
 cfa:	0004                	0x4
 cfc:	0501                	addi	a0,a0,0
 cfe:	0602                	c.slli64	a2
 d00:	00090003          	lb	zero,0(s2)
 d04:	0100                	addi	s0,sp,128
 d06:	0104                	addi	s1,sp,128
 d08:	1b05                	addi	s6,s6,-31
 d0a:	0306                	slli	t1,t1,0x1
 d0c:	0008096b          	0x8096b
 d10:	0501                	addi	a0,a0,0
 d12:	060c                	addi	a1,sp,768
 d14:	00090003          	lb	zero,0(s2)
 d18:	0100                	addi	s0,sp,128
 d1a:	1c05                	addi	s8,s8,-31
 d1c:	04090003          	lb	zero,64(s2)
 d20:	0100                	addi	s0,sp,128
 d22:	0905                	addi	s2,s2,1
 d24:	0306                	slli	t1,t1,0x1
 d26:	0900                	addi	s0,sp,144
 d28:	0004                	0x4
 d2a:	0501                	addi	a0,a0,0
 d2c:	0602                	c.slli64	a2
 d2e:	00090003          	lb	zero,0(s2)
 d32:	0100                	addi	s0,sp,128
 d34:	0c05                	addi	s8,s8,1
 d36:	0900fc03          	0x900fc03
 d3a:	0004                	0x4
 d3c:	0301                	addi	t1,t1,0
 d3e:	097f                	0x97f
 d40:	0004                	0x4
 d42:	0501                	addi	a0,a0,0
 d44:	030e                	slli	t1,t1,0x3
 d46:	097f                	0x97f
 d48:	0004                	0x4
 d4a:	0301                	addi	t1,t1,0
 d4c:	0904                	addi	s1,sp,144
 d4e:	0008                	0x8
 d50:	0501                	addi	a0,a0,0
 d52:	0604                	addi	s1,sp,768
 d54:	08090203          	lb	tp,128(s2)
 d58:	0100                	addi	s0,sp,128
 d5a:	1605                	addi	a2,a2,-31
 d5c:	0306                	slli	t1,t1,0x1
 d5e:	0900                	addi	s0,sp,144
 d60:	0004                	0x4
 d62:	0501                	addi	a0,a0,0
 d64:	0304                	addi	s1,sp,384
 d66:	0900                	addi	s0,sp,144
 d68:	0004                	0x4
 d6a:	0501                	addi	a0,a0,0
 d6c:	0606                	slli	a2,a2,0x1
 d6e:	08096603          	lwu	a2,128(s2)
 d72:	0100                	addi	s0,sp,128
 d74:	0805                	addi	a6,a6,1
 d76:	0306                	slli	t1,t1,0x1
 d78:	0900                	addi	s0,sp,144
 d7a:	0000                	unimp
 d7c:	0501                	addi	a0,a0,0
 d7e:	0606                	slli	a2,a2,0x1
 d80:	04090103          	lb	sp,64(s2)
 d84:	0100                	addi	s0,sp,128
 d86:	0805                	addi	a6,a6,1
 d88:	0306                	slli	t1,t1,0x1
 d8a:	097f                	0x97f
 d8c:	0000                	unimp
 d8e:	0301                	addi	t1,t1,0
 d90:	0901                	addi	s2,s2,0
 d92:	0004                	0x4
 d94:	0901                	addi	s2,s2,0
 d96:	0008                	0x8
 d98:	0100                	addi	s0,sp,128
 d9a:	01              	Address 0x0000000000000d9a is out of bounds.


Disassembly of section .debug_info:

0000000000000000 <.debug_info>:
   0:	002a                	c.slli	zero,0xa
   2:	0000                	unimp
   4:	0002                	c.slli64	zero
   6:	0000                	unimp
   8:	0000                	unimp
   a:	0108                	addi	a0,sp,128
   c:	0000                	unimp
   e:	0000                	unimp
  10:	0000                	unimp
  12:	8000                	0x8000
  14:	0000                	unimp
  16:	0000                	unimp
  18:	0090                	addi	a2,sp,64
  1a:	8000                	0x8000
	...
  24:	00000007          	0x7
  28:	0058                	addi	a4,sp,4
  2a:	0000                	unimp
  2c:	8001                	c.srli64	s0
  2e:	0142                	slli	sp,sp,0x10
  30:	0000                	unimp
  32:	0004                	0x4
  34:	0014                	0x14
  36:	0000                	unimp
  38:	0108                	addi	a0,sp,128
  3a:	0072                	c.slli	zero,0x1c
  3c:	0000                	unimp
  3e:	590c                	lw	a1,48(a0)
  40:	0001                	nop
  42:	0700                	addi	s0,sp,896
	...
  50:	0000                	unimp
  52:	6500                	ld	s0,8(a0)
  54:	0000                	unimp
  56:	0200                	addi	s0,sp,256
  58:	0601                	addi	a2,a2,0
  5a:	0108                	addi	a0,sp,128
  5c:	0000                	unimp
  5e:	0102                	c.slli64	sp
  60:	0608                	addi	a0,sp,768
  62:	0001                	nop
  64:	0200                	addi	s0,sp,256
  66:	0502                	c.slli64	a0
  68:	0000014f          	fnmadd.s	ft2,ft0,ft0,ft0,rne
  6c:	0202                	c.slli64	tp
  6e:	00012007          	flw	ft0,0(sp)
  72:	0300                	addi	s0,sp,384
  74:	0504                	addi	s1,sp,640
  76:	6e69                	lui	t3,0x1a
  78:	0074                	addi	a3,sp,12
  7a:	dd04                	sw	s1,56(a0)
  7c:	0000                	unimp
  7e:	0200                	addi	s0,sp,256
  80:	0058194f          	fnmadd.s	fs2,fa6,ft5,ft0,rtz
  84:	0000                	unimp
  86:	0402                	c.slli64	s0
  88:	0000ed07          	0xed07
  8c:	0200                	addi	s0,sp,256
  8e:	0508                	addi	a0,sp,640
  90:	0069                	c.nop	26
  92:	0000                	unimp
  94:	0802                	c.slli64	a6
  96:	0000e807          	0xe807
  9a:	0400                	addi	s0,sp,512
  9c:	00df 0000 3003      	0x3003000000df
  a2:	4c14                	lw	a3,24(s0)
  a4:	0000                	unimp
  a6:	0500                	addi	s0,sp,640
  a8:	006d                	c.nop	27
  aa:	0000                	unimp
  ac:	0802                	c.slli64	a6
  ae:	6405                	lui	s0,0x1
  b0:	0000                	unimp
  b2:	0600                	addi	s0,sp,768
  b4:	8b08                	0x8b08
  b6:	0000                	unimp
  b8:	0200                	addi	s0,sp,256
  ba:	0801                	addi	a6,a6,0
  bc:	0000010f          	0x10f
  c0:	1002                	c.slli	zero,0x20
  c2:	3c04                	fld	fs1,56(s0)
  c4:	0001                	nop
  c6:	0700                	addi	s0,sp,896
  c8:	0161                	addi	sp,sp,24
  ca:	0000                	unimp
  cc:	1004                	addi	s1,sp,32
  ce:	0000a50f          	0xa50f
  d2:	0600                	addi	s0,sp,768
  d4:	8508                	0x8508
  d6:	0000                	unimp
  d8:	0700                	addi	s0,sp,896
  da:	0148                	addi	a0,sp,132
  dc:	0000                	unimp
  de:	fc04                	sd	s1,56(s0)
  e0:	850e                	mv	a0,gp
  e2:	0000                	unimp
  e4:	0700                	addi	s0,sp,896
  e6:	00d6                	slli	ra,ra,0x15
  e8:	0000                	unimp
  ea:	fd04                	sd	s1,56(a0)
  ec:	450c                	lw	a1,8(a0)
  ee:	0000                	unimp
  f0:	0700                	addi	s0,sp,896
  f2:	00fa                	slli	ra,ra,0x1e
  f4:	0000                	unimp
  f6:	fd04                	sd	s1,56(a0)
  f8:	4514                	lw	a3,8(a0)
  fa:	0000                	unimp
  fc:	0700                	addi	s0,sp,896
  fe:	0119                	addi	sp,sp,6
 100:	0000                	unimp
 102:	fd04                	sd	s1,56(a0)
 104:	451c                	lw	a5,8(a0)
 106:	0000                	unimp
 108:	0700                	addi	s0,sp,896
 10a:	00000133          	add	sp,zero,zero
 10e:	ff04                	sd	s1,56(a4)
 110:	450c                	lw	a1,8(a0)
 112:	0000                	unimp
 114:	0800                	addi	s0,sp,16
 116:	0101                	addi	sp,sp,0
 118:	0000                	unimp
 11a:	1405                	addi	s0,s0,-31
 11c:	fd22                	sd	s0,184(sp)
 11e:	0000                	unimp
 120:	0000                	unimp
 122:	0000                	unimp
 124:	0664                	addi	s1,sp,780
 126:	7908                	ld	a0,48(a0)
 128:	0000                	unimp
 12a:	0900                	addi	s0,sp,144
 12c:	000000f7          	0xf7
 130:	140a                	slli	s0,s0,0x22
 132:	0001                	nop
 134:	0100                	addi	s0,sp,128
 136:	0045050b          	0x45050b
 13a:	0000                	unimp
 13c:	0090                	addi	a2,sp,64
 13e:	8000                	0x8000
 140:	0000                	unimp
 142:	0000                	unimp
 144:	002c                	addi	a1,sp,8
 146:	0000                	unimp
 148:	0000                	unimp
 14a:	0000                	unimp
 14c:	9c01                	subw	s0,s0,s0
 14e:	0139                	addi	sp,sp,14
 150:	0000                	unimp
 152:	0000b80b          	0xb80b
 156:	0080                	addi	s0,sp,64
 158:	0000                	unimp
 15a:	3900                	fld	fs0,48(a0)
 15c:	0001                	nop
 15e:	0c00                	addi	s0,sp,528
 160:	5a01                	li	s4,-32
 162:	7802                	ld	a6,32(sp)
 164:	0000                	unimp
 166:	0d00                	addi	s0,sp,656
 168:	0194                	addi	a3,sp,192
 16a:	0000                	unimp
 16c:	0194                	addi	a3,sp,192
 16e:	0000                	unimp
 170:	3405                	addiw	s0,s0,-31
 172:	000d                	c.nop	3
 174:	07f8                	addi	a4,sp,972
 176:	0000                	unimp
 178:	0004                	0x4
 17a:	00d0                	addi	a2,sp,68
 17c:	0000                	unimp
 17e:	0108                	addi	a0,sp,128
 180:	0072                	c.slli	zero,0x1c
 182:	0000                	unimp
 184:	7b0c                	ld	a1,48(a4)
 186:	0001                	nop
 188:	0700                	addi	s0,sp,896
 18a:	0000                	unimp
 18c:	bc00                	fsd	fs0,56(s0)
 18e:	0000                	unimp
 190:	0080                	addi	s0,sp,64
 192:	0000                	unimp
 194:	4800                	lw	s0,16(s0)
 196:	0004                	0x4
 198:	0000                	unimp
 19a:	0000                	unimp
 19c:	3f00                	fld	fs0,56(a4)
 19e:	0002                	c.slli64	zero
 1a0:	0200                	addi	s0,sp,256
 1a2:	01a9                	addi	gp,gp,10
 1a4:	0000                	unimp
 1a6:	391b2803          	lw	a6,913(s6)
 1aa:	0000                	unimp
 1ac:	0300                	addi	s0,sp,384
 1ae:	dc08                	sw	a0,56(s0)
 1b0:	0001                	nop
 1b2:	0200                	addi	s0,sp,256
 1b4:	01b0                	addi	a2,sp,200
 1b6:	0000                	unimp
 1b8:	2d186303          	lwu	t1,721(a6)
 1bc:	0000                	unimp
 1be:	0400                	addi	s0,sp,512
 1c0:	0601                	addi	a2,a2,0
 1c2:	0108                	addi	a0,sp,128
 1c4:	0000                	unimp
 1c6:	0104                	addi	s1,sp,128
 1c8:	0608                	addi	a0,sp,768
 1ca:	0001                	nop
 1cc:	0400                	addi	s0,sp,512
 1ce:	0502                	c.slli64	a0
 1d0:	0000014f          	fnmadd.s	ft2,ft0,ft0,ft0,rne
 1d4:	0204                	addi	s1,sp,256
 1d6:	00012007          	flw	ft0,0(sp)
 1da:	0200                	addi	s0,sp,256
 1dc:	0171                	addi	sp,sp,28
 1de:	0000                	unimp
 1e0:	4d04                	lw	s1,24(a0)
 1e2:	7318                	ld	a4,32(a4)
 1e4:	0000                	unimp
 1e6:	0500                	addi	s0,sp,640
 1e8:	0504                	addi	s1,sp,640
 1ea:	6e69                	lui	t3,0x1a
 1ec:	0074                	addi	a3,sp,12
 1ee:	dd02                	sw	zero,184(sp)
 1f0:	0000                	unimp
 1f2:	0400                	addi	s0,sp,512
 1f4:	0086194f          	fnmadd.s	fs2,fa2,fs0,ft0,rtz
 1f8:	0000                	unimp
 1fa:	0404                	addi	s1,sp,512
 1fc:	0000ed07          	0xed07
 200:	0400                	addi	s0,sp,512
 202:	0508                	addi	a0,sp,640
 204:	0069                	c.nop	26
 206:	0000                	unimp
 208:	0804                	addi	s1,sp,16
 20a:	0000e807          	0xe807
 20e:	0200                	addi	s0,sp,256
 210:	00000173          	0x173
 214:	2c05                	addiw	s8,s8,1
 216:	00006713          	ori	a4,zero,0
 21a:	0200                	addi	s0,sp,256
 21c:	00df 0000 3005      	0x3005000000df
 222:	7a14                	ld	a3,48(a2)
 224:	0000                	unimp
 226:	0600                	addi	s0,sp,768
 228:	000000a7          	0xa7
 22c:	00010107          	0x10107
 230:	0200                	addi	s0,sp,256
 232:	2214                	fld	fa3,0(a2)
 234:	00ce                	slli	ra,ra,0x13
 236:	0000                	unimp
 238:	0000                	unimp
 23a:	6400                	ld	s0,8(s0)
 23c:	0808                	addi	a0,sp,16
 23e:	000000b3          	add	ra,zero,zero
 242:	c809                	beqz	s0,254 <_prog_start-0x7ffffdac>
 244:	0000                	unimp
 246:	0a00                	addi	s0,sp,272
 248:	019a                	slli	gp,gp,0x6
 24a:	0000                	unimp
 24c:	5a01                	li	s4,-32
 24e:	ec06                	sd	ra,24(sp)
 250:	0002                	c.slli64	zero
 252:	0080                	addi	s0,sp,64
 254:	0000                	unimp
 256:	1800                	addi	s0,sp,48
 258:	0002                	c.slli64	zero
 25a:	0000                	unimp
 25c:	0000                	unimp
 25e:	0100                	addi	s0,sp,128
 260:	8c9c                	0x8c9c
 262:	0002                	c.slli64	zero
 264:	0b00                	addi	s0,sp,400
 266:	6d66                	ld	s10,88(sp)
 268:	0074                	addi	a3,sp,12
 26a:	5a01                	li	s4,-32
 26c:	8c1a                	mv	s8,t1
 26e:	0002                	c.slli64	zero
 270:	0000                	unimp
 272:	0000                	unimp
 274:	0c00                	addi	s0,sp,528
 276:	760d                	lui	a2,0xfffe3
 278:	006c                	addi	a1,sp,12
 27a:	5c01                	li	s8,-32
 27c:	3f0a                	fld	ft10,160(sp)
 27e:	0000                	unimp
 280:	0300                	addi	s0,sp,384
 282:	d891                	beqz	s1,196 <_prog_start-0x7ffffe6a>
 284:	0e7e                	slli	t3,t3,0x1f
 286:	01c5                	addi	gp,gp,17
 288:	0000                	unimp
 28a:	5d01                	li	s10,-32
 28c:	00029e07          	0x29e07
 290:	9700                	0x9700
 292:	0000                	unimp
 294:	0e00                	addi	s0,sp,784
 296:	0185                	addi	gp,gp,1
 298:	0000                	unimp
 29a:	5d01                	li	s10,-32
 29c:	9e12                	add	t3,t3,tp
 29e:	0002                	c.slli64	zero
 2a0:	5500                	lw	s0,40(a0)
 2a2:	0001                	nop
 2a4:	0e00                	addi	s0,sp,784
 2a6:	0169                	addi	sp,sp,26
 2a8:	0000                	unimp
 2aa:	5d01                	li	s10,-32
 2ac:	00029e1b          	slliw	t3,t0,0x0
 2b0:	d800                	sw	s0,48(s0)
 2b2:	0001                	nop
 2b4:	0f00                	addi	s0,sp,912
 2b6:	5e010063          	beqz	sp,896 <_prog_start-0x7ffff76a>
 2ba:	00029207          	0x29207
 2be:	6e00                	ld	s0,24(a2)
 2c0:	0002                	c.slli64	zero
 2c2:	1000                	addi	s0,sp,32
 2c4:	0100                	addi	s0,sp,128
 2c6:	0000                	unimp
 2c8:	01b5                	addi	gp,gp,13
 2ca:	0000                	unimp
 2cc:	01006e0f          	0x1006e0f
 2d0:	136e                	slli	t1,t1,0x3b
 2d2:	0094                	addi	a3,sp,64
 2d4:	0000                	unimp
 2d6:	02ca                	slli	t0,t0,0x12
 2d8:	0000                	unimp
 2da:	0100690f          	0x100690f
 2de:	008d0a6f          	jal	s4,d02e6 <_prog_start-0x7ff2fd1a>
 2e2:	0000                	unimp
 2e4:	0300                	addi	s0,sp,384
 2e6:	0000                	unimp
 2e8:	4011                	c.li	zero,4
 2ea:	0001                	nop
 2ec:	0f00                	addi	s0,sp,912
 2ee:	0064                	addi	s1,sp,12
 2f0:	7801                	lui	a6,0xfffe0
 2f2:	00008d0b          	0x8d0b
 2f6:	3800                	fld	fs0,48(s0)
 2f8:	12000003          	lb	zero,288(zero) # 120 <_prog_start-0x7ffffee0>
 2fc:	07d2                	slli	a5,a5,0x14
 2fe:	0000                	unimp
 300:	044c                	addi	a1,sp,516
 302:	8000                	0x8000
 304:	0000                	unimp
 306:	0000                	unimp
 308:	000c                	0xc
 30a:	0000                	unimp
 30c:	0000                	unimp
 30e:	0000                	unimp
 310:	7a01                	lui	s4,0xfffe0
 312:	1306                	slli	t1,t1,0x21
 314:	000007db          	0x7db
 318:	e514                	sd	a3,8(a0)
 31a:	15000007          	0x15000007
 31e:	07f0                	addi	a2,sp,972
 320:	0000                	unimp
 322:	0378                	addi	a4,sp,396
 324:	0000                	unimp
 326:	0000                	unimp
 328:	1600                	addi	s0,sp,800
 32a:	07d2                	slli	a5,a5,0x14
 32c:	0000                	unimp
 32e:	0364                	addi	s1,sp,396
 330:	8000                	0x8000
 332:	0000                	unimp
 334:	0000                	unimp
 336:	00d0                	addi	a2,sp,68
 338:	0000                	unimp
 33a:	8d01                	sub	a0,a0,s0
 33c:	e704                	sd	s1,8(a4)
 33e:	0001                	nop
 340:	1300                	addi	s0,sp,416
 342:	000007db          	0x7db
 346:	d011                	beqz	s0,24a <_prog_start-0x7ffffdb6>
 348:	0000                	unimp
 34a:	1400                	addi	s0,sp,544
 34c:	07e5                	addi	a5,a5,25
 34e:	0000                	unimp
 350:	f015                	bnez	s0,274 <_prog_start-0x7ffffd8c>
 352:	9b000007          	0x9b000007
 356:	00000003          	lb	zero,0(zero) # 0 <_prog_start-0x80000000>
 35a:	1600                	addi	s0,sp,800
 35c:	07d2                	slli	a5,a5,0x14
 35e:	0000                	unimp
 360:	0478                	addi	a4,sp,524
 362:	8000                	0x8000
 364:	0000                	unimp
 366:	0000                	unimp
 368:	0170                	addi	a2,sp,140
 36a:	0000                	unimp
 36c:	8201                	c.srli64	a2
 36e:	2105                	addiw	sp,sp,1
 370:	0002                	c.slli64	zero
 372:	1700                	addi	s0,sp,928
 374:	000007db          	0x7db
 378:	03be                	slli	t2,t2,0xf
 37a:	0000                	unimp
 37c:	7011                	c.lui	zero,0xfffe4
 37e:	0001                	nop
 380:	1500                	addi	s0,sp,672
 382:	07e5                	addi	a5,a5,25
 384:	0000                	unimp
 386:	03e1                	addi	t2,t2,24
 388:	0000                	unimp
 38a:	f015                	bnez	s0,2ae <_prog_start-0x7ffffd52>
 38c:	07000007          	0x7000007
 390:	0004                	0x4
 392:	0000                	unimp
 394:	1600                	addi	s0,sp,800
 396:	00000787          	0x787
 39a:	04a4                	addi	s1,sp,584
 39c:	8000                	0x8000
 39e:	0000                	unimp
 3a0:	0000                	unimp
 3a2:	01a0                	addi	s0,sp,200
 3a4:	0000                	unimp
 3a6:	7f01                	lui	t5,0xfffe0
 3a8:	7e05                	lui	t3,0xfffe1
 3aa:	0002                	c.slli64	zero
 3ac:	1700                	addi	s0,sp,928
 3ae:	0794                	addi	a3,sp,960
 3b0:	0000                	unimp
 3b2:	042a                	slli	s0,s0,0xa
 3b4:	0000                	unimp
 3b6:	a011                	j	3ba <_prog_start-0x7ffffc46>
 3b8:	0001                	nop
 3ba:	1500                	addi	s0,sp,672
 3bc:	079e                	slli	a5,a5,0x7
 3be:	0000                	unimp
 3c0:	044d                	addi	s0,s0,19
 3c2:	0000                	unimp
 3c4:	d212                	sw	tp,36(sp)
 3c6:	b4000007          	0xb4000007
 3ca:	0004                	0x4
 3cc:	0080                	addi	s0,sp,64
 3ce:	0000                	unimp
 3d0:	0c00                	addi	s0,sp,528
 3d2:	0000                	unimp
 3d4:	0000                	unimp
 3d6:	0000                	unimp
 3d8:	0100                	addi	s0,sp,128
 3da:	030c                	addi	a1,sp,384
 3dc:	0007db13          	srli	s6,a5,0x0
 3e0:	1400                	addi	s0,sp,544
 3e2:	07e5                	addi	a5,a5,25
 3e4:	0000                	unimp
 3e6:	f015                	bnez	s0,30a <_prog_start-0x7ffffcf6>
 3e8:	83000007          	0x83000007
 3ec:	0004                	0x4
 3ee:	0000                	unimp
 3f0:	0000                	unimp
 3f2:	f018                	sd	a4,32(s0)
 3f4:	0004                	0x4
 3f6:	0080                	addi	s0,sp,64
 3f8:	0000                	unimp
 3fa:	a500                	fsd	fs0,8(a0)
 3fc:	0002                	c.slli64	zero
 3fe:	0000                	unimp
 400:	0808                	addi	a0,sp,16
 402:	0299                	addi	t0,t0,6
 404:	0000                	unimp
 406:	0104                	addi	s1,sp,128
 408:	0f08                	addi	a0,sp,912
 40a:	0001                	nop
 40c:	0900                	addi	s0,sp,144
 40e:	0292                	slli	t0,t0,0x4
 410:	0000                	unimp
 412:	0104                	addi	s1,sp,128
 414:	fa02                	sd	zero,304(sp)
 416:	0001                	nop
 418:	0a00                	addi	s0,sp,272
 41a:	01b8                	addi	a4,sp,200
 41c:	0000                	unimp
 41e:	2f01                	sext.w	t5,t5
 420:	a006                	fsd	ft1,0(sp)
 422:	0001                	nop
 424:	0080                	addi	s0,sp,64
 426:	0000                	unimp
 428:	4c00                	lw	s0,24(s0)
 42a:	0001                	nop
 42c:	0000                	unimp
 42e:	0000                	unimp
 430:	0100                	addi	s0,sp,128
 432:	0c9c                	addi	a5,sp,592
 434:	0005                	c.nop	1
 436:	0b00                	addi	s0,sp,400
 438:	2f010063          	beq	sp,a6,718 <_prog_start-0x7ffff8e8>
 43c:	991e                	add	s2,s2,t2
 43e:	0002                	c.slli64	zero
 440:	a600                	fsd	fs0,8(a2)
 442:	0004                	0x4
 444:	1900                	addi	s0,sp,176
 446:	07d2                	slli	a5,a5,0x14
 448:	0000                	unimp
 44a:	01cc                	addi	a1,sp,196
 44c:	8000                	0x8000
 44e:	0000                	unimp
 450:	0000                	unimp
 452:	0014                	0x14
 454:	0000                	unimp
 456:	0000                	unimp
 458:	0000                	unimp
 45a:	5301                	li	t1,-32
 45c:	00030103          	lb	sp,0(t1)
 460:	1300                	addi	s0,sp,416
 462:	000007db          	0x7db
 466:	e514                	sd	a3,8(a0)
 468:	15000007          	0x15000007
 46c:	07f0                	addi	a2,sp,972
 46e:	0000                	unimp
 470:	04df 0000 1900      	0x1900000004df
 476:	07d2                	slli	a5,a5,0x14
 478:	0000                	unimp
 47a:	01e4                	addi	s1,sp,204
 47c:	8000                	0x8000
 47e:	0000                	unimp
 480:	0000                	unimp
 482:	0018                	0x18
 484:	0000                	unimp
 486:	0000                	unimp
 488:	0000                	unimp
 48a:	4401                	li	s0,0
 48c:	00033103          	ld	sp,0(t1)
 490:	1300                	addi	s0,sp,416
 492:	000007db          	0x7db
 496:	e514                	sd	a3,8(a0)
 498:	15000007          	0x15000007
 49c:	07f0                	addi	a2,sp,972
 49e:	0000                	unimp
 4a0:	0502                	c.slli64	a0
 4a2:	0000                	unimp
 4a4:	1900                	addi	s0,sp,176
 4a6:	07d2                	slli	a5,a5,0x14
 4a8:	0000                	unimp
 4aa:	01fc                	addi	a5,sp,204
 4ac:	8000                	0x8000
 4ae:	0000                	unimp
 4b0:	0000                	unimp
 4b2:	0018                	0x18
 4b4:	0000                	unimp
 4b6:	0000                	unimp
 4b8:	0000                	unimp
 4ba:	4101                	li	sp,0
 4bc:	00036103          	lwu	sp,0(t1)
 4c0:	1300                	addi	s0,sp,416
 4c2:	000007db          	0x7db
 4c6:	e514                	sd	a3,8(a0)
 4c8:	15000007          	0x15000007
 4cc:	07f0                	addi	a2,sp,972
 4ce:	0000                	unimp
 4d0:	0525                	addi	a0,a0,9
 4d2:	0000                	unimp
 4d4:	1900                	addi	s0,sp,176
 4d6:	07d2                	slli	a5,a5,0x14
 4d8:	0000                	unimp
 4da:	0214                	addi	a3,sp,256
 4dc:	8000                	0x8000
 4de:	0000                	unimp
 4e0:	0000                	unimp
 4e2:	0018                	0x18
 4e4:	0000                	unimp
 4e6:	0000                	unimp
 4e8:	0000                	unimp
 4ea:	3e01                	addiw	t3,t3,-32
 4ec:	00039103          	lh	sp,0(t2)
 4f0:	1300                	addi	s0,sp,416
 4f2:	000007db          	0x7db
 4f6:	e514                	sd	a3,8(a0)
 4f8:	15000007          	0x15000007
 4fc:	07f0                	addi	a2,sp,972
 4fe:	0000                	unimp
 500:	0548                	addi	a0,sp,644
 502:	0000                	unimp
 504:	1900                	addi	s0,sp,176
 506:	07d2                	slli	a5,a5,0x14
 508:	0000                	unimp
 50a:	022c                	addi	a1,sp,264
 50c:	8000                	0x8000
 50e:	0000                	unimp
 510:	0000                	unimp
 512:	0018                	0x18
 514:	0000                	unimp
 516:	0000                	unimp
 518:	0000                	unimp
 51a:	3b01                	addiw	s6,s6,-32
 51c:	0003c103          	lbu	sp,0(t2)
 520:	1300                	addi	s0,sp,416
 522:	000007db          	0x7db
 526:	e514                	sd	a3,8(a0)
 528:	15000007          	0x15000007
 52c:	07f0                	addi	a2,sp,972
 52e:	0000                	unimp
 530:	0000056b          	0x56b
 534:	1900                	addi	s0,sp,176
 536:	07d2                	slli	a5,a5,0x14
 538:	0000                	unimp
 53a:	0244                	addi	s1,sp,260
 53c:	8000                	0x8000
 53e:	0000                	unimp
 540:	0000                	unimp
 542:	0018                	0x18
 544:	0000                	unimp
 546:	0000                	unimp
 548:	0000                	unimp
 54a:	3801                	addiw	a6,a6,-32
 54c:	0003f103          	0x3f103
 550:	1300                	addi	s0,sp,416
 552:	000007db          	0x7db
 556:	e514                	sd	a3,8(a0)
 558:	15000007          	0x15000007
 55c:	07f0                	addi	a2,sp,972
 55e:	0000                	unimp
 560:	058e                	slli	a1,a1,0x3
 562:	0000                	unimp
 564:	1900                	addi	s0,sp,176
 566:	07d2                	slli	a5,a5,0x14
 568:	0000                	unimp
 56a:	025c                	addi	a5,sp,260
 56c:	8000                	0x8000
 56e:	0000                	unimp
 570:	0000                	unimp
 572:	0018                	0x18
 574:	0000                	unimp
 576:	0000                	unimp
 578:	0000                	unimp
 57a:	3501                	addiw	a0,a0,-32
 57c:	00042103          	lw	sp,0(s0) # 1000 <_prog_start-0x7ffff000>
 580:	1300                	addi	s0,sp,416
 582:	000007db          	0x7db
 586:	e514                	sd	a3,8(a0)
 588:	15000007          	0x15000007
 58c:	07f0                	addi	a2,sp,972
 58e:	0000                	unimp
 590:	05b1                	addi	a1,a1,12
 592:	0000                	unimp
 594:	1900                	addi	s0,sp,176
 596:	07d2                	slli	a5,a5,0x14
 598:	0000                	unimp
 59a:	0274                	addi	a3,sp,268
 59c:	8000                	0x8000
 59e:	0000                	unimp
 5a0:	0000                	unimp
 5a2:	0018                	0x18
 5a4:	0000                	unimp
 5a6:	0000                	unimp
 5a8:	0000                	unimp
 5aa:	3201                	addiw	tp,tp,-32
 5ac:	00045103          	lhu	sp,0(s0)
 5b0:	1300                	addi	s0,sp,416
 5b2:	000007db          	0x7db
 5b6:	e514                	sd	a3,8(a0)
 5b8:	15000007          	0x15000007
 5bc:	07f0                	addi	a2,sp,972
 5be:	0000                	unimp
 5c0:	05d4                	addi	a3,sp,708
 5c2:	0000                	unimp
 5c4:	1900                	addi	s0,sp,176
 5c6:	07d2                	slli	a5,a5,0x14
 5c8:	0000                	unimp
 5ca:	028c                	addi	a1,sp,320
 5cc:	8000                	0x8000
 5ce:	0000                	unimp
 5d0:	0000                	unimp
 5d2:	0018                	0x18
 5d4:	0000                	unimp
 5d6:	0000                	unimp
 5d8:	0000                	unimp
 5da:	4701                	li	a4,0
 5dc:	00048103          	lb	sp,0(s1)
 5e0:	1300                	addi	s0,sp,416
 5e2:	000007db          	0x7db
 5e6:	e514                	sd	a3,8(a0)
 5e8:	15000007          	0x15000007
 5ec:	07f0                	addi	a2,sp,972
 5ee:	0000                	unimp
 5f0:	000005f7          	0x5f7
 5f4:	1900                	addi	s0,sp,176
 5f6:	07d2                	slli	a5,a5,0x14
 5f8:	0000                	unimp
 5fa:	02a4                	addi	s1,sp,328
 5fc:	8000                	0x8000
 5fe:	0000                	unimp
 600:	0000                	unimp
 602:	0018                	0x18
 604:	0000                	unimp
 606:	0000                	unimp
 608:	0000                	unimp
 60a:	5001                	c.li	zero,-32
 60c:	0004b103          	ld	sp,0(s1)
 610:	1300                	addi	s0,sp,416
 612:	000007db          	0x7db
 616:	e514                	sd	a3,8(a0)
 618:	15000007          	0x15000007
 61c:	07f0                	addi	a2,sp,972
 61e:	0000                	unimp
 620:	061a                	slli	a2,a2,0x6
 622:	0000                	unimp
 624:	1900                	addi	s0,sp,176
 626:	07d2                	slli	a5,a5,0x14
 628:	0000                	unimp
 62a:	02bc                	addi	a5,sp,328
 62c:	8000                	0x8000
 62e:	0000                	unimp
 630:	0000                	unimp
 632:	0018                	0x18
 634:	0000                	unimp
 636:	0000                	unimp
 638:	0000                	unimp
 63a:	4a01                	li	s4,0
 63c:	0004e103          	lwu	sp,0(s1)
 640:	1300                	addi	s0,sp,416
 642:	000007db          	0x7db
 646:	e514                	sd	a3,8(a0)
 648:	15000007          	0x15000007
 64c:	07f0                	addi	a2,sp,972
 64e:	0000                	unimp
 650:	063d                	addi	a2,a2,15
 652:	0000                	unimp
 654:	1200                	addi	s0,sp,288
 656:	07d2                	slli	a5,a5,0x14
 658:	0000                	unimp
 65a:	02d4                	addi	a3,sp,324
 65c:	8000                	0x8000
 65e:	0000                	unimp
 660:	0000                	unimp
 662:	0018                	0x18
 664:	0000                	unimp
 666:	0000                	unimp
 668:	0000                	unimp
 66a:	4d01                	li	s10,0
 66c:	07db1303          	lh	t1,125(s6)
 670:	0000                	unimp
 672:	e514                	sd	a3,8(a0)
 674:	1a000007          	0x1a000007
 678:	07f0                	addi	a2,sp,972
 67a:	0000                	unimp
 67c:	5d01                	li	s10,-32
 67e:	0000                	unimp
 680:	d00a                	sw	sp,32(sp)
 682:	0001                	nop
 684:	0100                	addi	s0,sp,128
 686:	016c062b          	0x16c062b
 68a:	8000                	0x8000
 68c:	0000                	unimp
 68e:	0000                	unimp
 690:	0034                	addi	a3,sp,8
 692:	0000                	unimp
 694:	0000                	unimp
 696:	0000                	unimp
 698:	9c01                	subw	s0,s0,s0
 69a:	0588                	addi	a0,sp,704
 69c:	0000                	unimp
 69e:	0100730b          	0x100730b
 6a2:	0588122b          	0x588122b
 6a6:	0000                	unimp
 6a8:	0660                	addi	s0,sp,780
 6aa:	0000                	unimp
 6ac:	6f12                	ld	t5,256(sp)
 6ae:	6c000007          	0x6c000007
 6b2:	0001                	nop
 6b4:	0080                	addi	s0,sp,64
 6b6:	0000                	unimp
 6b8:	3000                	fld	fs0,32(s0)
 6ba:	0000                	unimp
 6bc:	0000                	unimp
 6be:	0000                	unimp
 6c0:	0100                	addi	s0,sp,128
 6c2:	022c                	addi	a1,sp,264
 6c4:	00077c17          	auipc	s8,0x77
 6c8:	9900                	0x9900
 6ca:	0006                	c.slli	zero,0x1
 6cc:	1b00                	addi	s0,sp,432
 6ce:	07a9                	addi	a5,a5,10
 6d0:	0000                	unimp
 6d2:	016c                	addi	a1,sp,140
 6d4:	8000                	0x8000
 6d6:	0000                	unimp
 6d8:	0000                	unimp
 6da:	0080                	addi	s0,sp,64
 6dc:	0000                	unimp
 6de:	1101                	addi	sp,sp,-32
 6e0:	0080110f          	0x80110f
 6e4:	0000                	unimp
 6e6:	ba15                	j	1a <_prog_start-0x7fffffe6>
 6e8:	bc000007          	0xbc000007
 6ec:	0006                	c.slli	zero,0x1
 6ee:	1500                	addi	s0,sp,672
 6f0:	07c6                	slli	a5,a5,0x11
 6f2:	0000                	unimp
 6f4:	0709                	addi	a4,a4,2
 6f6:	0000                	unimp
 6f8:	0000                	unimp
 6fa:	0000                	unimp
 6fc:	0808                	addi	a0,sp,16
 6fe:	0292                	slli	t0,t0,0x4
 700:	0000                	unimp
 702:	940a                	add	s0,s0,sp
 704:	0001                	nop
 706:	0100                	addi	s0,sp,128
 708:	0625                	addi	a2,a2,9
 70a:	0130                	addi	a2,sp,136
 70c:	8000                	0x8000
 70e:	0000                	unimp
 710:	0000                	unimp
 712:	003c                	addi	a5,sp,8
 714:	0000                	unimp
 716:	0000                	unimp
 718:	0000                	unimp
 71a:	9c01                	subw	s0,s0,s0
 71c:	0640                	addi	s0,sp,772
 71e:	0000                	unimp
 720:	0100730b          	0x100730b
 724:	1825                	addi	a6,a6,-23
 726:	028c                	addi	a1,sp,320
 728:	0000                	unimp
 72a:	0731                	addi	a4,a4,12
 72c:	0000                	unimp
 72e:	8719                	srai	a4,a4,0x6
 730:	30000007          	0x30000007
 734:	0001                	nop
 736:	0080                	addi	s0,sp,64
 738:	0000                	unimp
 73a:	2400                	fld	fs0,8(s0)
 73c:	0000                	unimp
 73e:	0000                	unimp
 740:	0000                	unimp
 742:	0100                	addi	s0,sp,128
 744:	06150227          	0x6150227
 748:	0000                	unimp
 74a:	00079417          	auipc	s0,0x79
 74e:	6a00                	ld	s0,16(a2)
 750:	15000007          	0x15000007
 754:	079e                	slli	a5,a5,0x7
 756:	0000                	unimp
 758:	078d                	addi	a5,a5,3
 75a:	0000                	unimp
 75c:	d212                	sw	tp,36(sp)
 75e:	38000007          	0x38000007
 762:	0001                	nop
 764:	0080                	addi	s0,sp,64
 766:	0000                	unimp
 768:	1000                	addi	s0,sp,32
 76a:	0000                	unimp
 76c:	0000                	unimp
 76e:	0000                	unimp
 770:	0100                	addi	s0,sp,128
 772:	030c                	addi	a1,sp,384
 774:	0007db13          	srli	s6,a5,0x0
 778:	1400                	addi	s0,sp,544
 77a:	07e5                	addi	a5,a5,25
 77c:	0000                	unimp
 77e:	f015                	bnez	s0,6a2 <_prog_start-0x7ffff95e>
 780:	c3000007          	0xc3000007
 784:	00000007          	0x7
 788:	1200                	addi	s0,sp,288
 78a:	07d2                	slli	a5,a5,0x14
 78c:	0000                	unimp
 78e:	0154                	addi	a3,sp,132
 790:	8000                	0x8000
 792:	0000                	unimp
 794:	0000                	unimp
 796:	0014                	0x14
 798:	0000                	unimp
 79a:	0000                	unimp
 79c:	0000                	unimp
 79e:	2801                	sext.w	a6,a6
 7a0:	1302                	slli	t1,t1,0x20
 7a2:	000007db          	0x7db
 7a6:	e514                	sd	a3,8(a0)
 7a8:	1a000007          	0x1a000007
 7ac:	07f0                	addi	a2,sp,972
 7ae:	0000                	unimp
 7b0:	5d01                	li	s10,-32
 7b2:	0000                	unimp
 7b4:	a20a                	fsd	ft2,256(sp)
 7b6:	0001                	nop
 7b8:	0100                	addi	s0,sp,128
 7ba:	061d                	addi	a2,a2,7
 7bc:	00f8                	addi	a4,sp,76
 7be:	8000                	0x8000
 7c0:	0000                	unimp
 7c2:	0000                	unimp
 7c4:	0038                	addi	a4,sp,8
 7c6:	0000                	unimp
 7c8:	0000                	unimp
 7ca:	0000                	unimp
 7cc:	9c01                	subw	s0,s0,s0
 7ce:	06dc                	addi	a5,sp,836
 7d0:	0000                	unimp
 7d2:	0100730b          	0x100730b
 7d6:	131d                	addi	t1,t1,-25
 7d8:	0588                	addi	a0,sp,704
 7da:	0000                	unimp
 7dc:	07e6                	slli	a5,a5,0x19
 7de:	0000                	unimp
 7e0:	d61c                	sw	a5,40(a2)
 7e2:	0001                	nop
 7e4:	0100                	addi	s0,sp,128
 7e6:	1a1d                	addi	s4,s4,-25
 7e8:	00000073          	ecall
 7ec:	081f 0000 700d      	0x700d0000081f
 7f2:	0100                	addi	s0,sp,128
 7f4:	081f 0588 0000      	0x588081f
 7fa:	5a01                	li	s4,-32
 7fc:	f81d                	bnez	s0,732 <_prog_start-0x7ffff8ce>
 7fe:	0000                	unimp
 800:	0080                	addi	s0,sp,64
 802:	0000                	unimp
 804:	3400                	fld	fs0,40(s0)
 806:	0000                	unimp
 808:	0000                	unimp
 80a:	0000                	unimp
 80c:	1e00                	addi	s0,sp,816
 80e:	0069                	c.nop	26
 810:	2001                	0x2001
 812:	0000730b          	0x730b
 816:	0000                	unimp
 818:	0007d21b          	srliw	tp,a5,0x0
 81c:	1000                	addi	s0,sp,32
 81e:	0001                	nop
 820:	0080                	addi	s0,sp,64
 822:	0000                	unimp
 824:	5000                	lw	s0,32(s0)
 826:	0000                	unimp
 828:	0100                	addi	s0,sp,128
 82a:	0321                	addi	t1,t1,8
 82c:	0007db17          	auipc	s6,0x7d
 830:	5800                	lw	s0,48(s0)
 832:	0008                	0x8
 834:	1100                	addi	s0,sp,160
 836:	0050                	addi	a2,sp,4
 838:	0000                	unimp
 83a:	e515                	bnez	a0,866 <_prog_start-0x7ffff79a>
 83c:	7b000007          	0x7b000007
 840:	0008                	0x8
 842:	1500                	addi	s0,sp,672
 844:	07f0                	addi	a2,sp,972
 846:	0000                	unimp
 848:	08a1                	addi	a7,a7,8
 84a:	0000                	unimp
 84c:	0000                	unimp
 84e:	0000                	unimp
 850:	8d0a                	mv	s10,sp
 852:	0001                	nop
 854:	0100                	addi	s0,sp,128
 856:	0615                	addi	a2,a2,5
 858:	00bc                	addi	a5,sp,72
 85a:	8000                	0x8000
 85c:	0000                	unimp
 85e:	0000                	unimp
 860:	003c                	addi	a5,sp,8
 862:	0000                	unimp
 864:	0000                	unimp
 866:	0000                	unimp
 868:	9c01                	subw	s0,s0,s0
 86a:	0000076f          	jal	a4,86a <_prog_start-0x7ffff796>
 86e:	0100730b          	0x100730b
 872:	1215                	addi	tp,tp,-27
 874:	0588                	addi	a0,sp,704
 876:	0000                	unimp
 878:	08c4                	addi	s1,sp,84
 87a:	0000                	unimp
 87c:	d61c                	sw	a5,40(a2)
 87e:	0001                	nop
 880:	0100                	addi	s0,sp,128
 882:	1915                	addi	s2,s2,-27
 884:	00000073          	ecall
 888:	08fd                	addi	a7,a7,31
 88a:	0000                	unimp
 88c:	700d                	c.lui	zero,0xfffe3
 88e:	0100                	addi	s0,sp,128
 890:	05880817          	auipc	a6,0x5880
 894:	0000                	unimp
 896:	5a01                	li	s4,-32
 898:	bc1d                	j	2ce <_prog_start-0x7ffffd32>
 89a:	0000                	unimp
 89c:	0080                	addi	s0,sp,64
 89e:	0000                	unimp
 8a0:	3800                	fld	fs0,48(s0)
 8a2:	0000                	unimp
 8a4:	0000                	unimp
 8a6:	0000                	unimp
 8a8:	1e00                	addi	s0,sp,816
 8aa:	0069                	c.nop	26
 8ac:	1801                	addi	a6,a6,-32
 8ae:	0000730b          	0x730b
 8b2:	0000                	unimp
 8b4:	0007a91b          	0x7a91b
 8b8:	d400                	sw	s0,40(s0)
 8ba:	0000                	unimp
 8bc:	0080                	addi	s0,sp,64
 8be:	0000                	unimp
 8c0:	2000                	fld	fs0,0(s0)
 8c2:	0000                	unimp
 8c4:	0100                	addi	s0,sp,128
 8c6:	0a19                	addi	s4,s4,6
 8c8:	2011                	0x2011
 8ca:	0000                	unimp
 8cc:	1500                	addi	s0,sp,672
 8ce:	07ba                	slli	a5,a5,0xe
 8d0:	0000                	unimp
 8d2:	0936                	slli	s2,s2,0xd
 8d4:	0000                	unimp
 8d6:	c615                	beqz	a2,902 <_prog_start-0x7ffff6fe>
 8d8:	6e000007          	0x6e000007
 8dc:	0009                	c.nop	2
 8de:	0000                	unimp
 8e0:	0000                	unimp
 8e2:	1f00                	addi	s0,sp,944
 8e4:	000001cf          	fnmadd.s	ft3,ft0,ft0,ft0,rne
 8e8:	0f01                	addi	t5,t5,0
 8ea:	0314                	addi	a3,sp,384
 8ec:	00000787          	0x787
 8f0:	7320                	ld	s0,96(a4)
 8f2:	0100                	addi	s0,sp,128
 8f4:	0588210f          	0x588210f
 8f8:	0000                	unimp
 8fa:	1f00                	addi	s0,sp,944
 8fc:	00000193          	li	gp,0
 900:	0801                	addi	a6,a6,0
 902:	0314                	addi	a3,sp,384
 904:	07a9                	addi	a5,a5,10
 906:	0000                	unimp
 908:	7320                	ld	s0,96(a4)
 90a:	0100                	addi	s0,sp,128
 90c:	2708                	fld	fa0,8(a4)
 90e:	028c                	addi	a1,sp,320
 910:	0000                	unimp
 912:	6321                	lui	t1,0x8
 914:	0100                	addi	s0,sp,128
 916:	070a                	slli	a4,a4,0x2
 918:	0292                	slli	t0,t0,0x4
 91a:	0000                	unimp
 91c:	2200                	fld	fs0,0(a2)
 91e:	01f4                	addi	a3,sp,204
 920:	0000                	unimp
 922:	2702                	fld	fa4,0(sp)
 924:	9214                	0x9214
 926:	0002                	c.slli64	zero
 928:	0300                	addi	s0,sp,384
 92a:	07d2                	slli	a5,a5,0x14
 92c:	0000                	unimp
 92e:	7621                	lui	a2,0xfffe8
 930:	6c61                	lui	s8,0x18
 932:	0200                	addi	s0,sp,256
 934:	0a29                	addi	s4,s4,10
 936:	0000009b          	sext.w	ra,zero
 93a:	7221                	lui	tp,0xfffe8
 93c:	0078                	addi	a4,sp,12
 93e:	2a02                	fld	fs4,0(sp)
 940:	c815                	beqz	s0,974 <_prog_start-0x7ffff68c>
 942:	0000                	unimp
 944:	0000                	unimp
 946:	0001ee23          	0x1ee23
 94a:	0200                	addi	s0,sp,256
 94c:	1416                	slli	s0,s0,0x25
 94e:	00632003          	lw	zero,6(t1) # 8006 <_prog_start-0x7fff7ffa>
 952:	1602                	slli	a2,a2,0x20
 954:	921f 0002 2100      	0x21000002921f
 95a:	7874                	ld	a3,240(s0)
 95c:	0200                	addi	s0,sp,256
 95e:	1518                	addi	a4,sp,672
 960:	00c8                	addi	a0,sp,68
 962:	0000                	unimp
 964:	7221                	lui	tp,0xfffe8
 966:	0200                	addi	s0,sp,256
 968:	0a1a                	slli	s4,s4,0x6
 96a:	0000009b          	sext.w	ra,zero
	...

Disassembly of section .debug_abbrev:

0000000000000000 <.debug_abbrev>:
   0:	1101                	addi	sp,sp,-32
   2:	1000                	addi	s0,sp,32
   4:	1106                	slli	sp,sp,0x21
   6:	1201                	addi	tp,tp,-32
   8:	0301                	addi	t1,t1,0
   a:	1b0e                	slli	s6,s6,0x23
   c:	250e                	fld	fa0,192(sp)
   e:	130e                	slli	t1,t1,0x23
  10:	0005                	c.nop	1
  12:	0000                	unimp
  14:	1101                	addi	sp,sp,-32
  16:	2501                	sext.w	a0,a0
  18:	130e                	slli	t1,t1,0x23
  1a:	1b0e030b          	0x1b0e030b
  1e:	550e                	lw	a0,224(sp)
  20:	10011117          	auipc	sp,0x10011
  24:	02000017          	auipc	zero,0x2000
  28:	0024                	addi	s1,sp,8
  2a:	0b3e0b0b          	0xb3e0b0b
  2e:	00000e03          	lb	t3,0(zero) # 0 <_prog_start-0x80000000>
  32:	0b002403          	lw	s0,176(zero) # b0 <_prog_start-0x7fffff50>
  36:	030b3e0b          	0x30b3e0b
  3a:	0008                	0x8
  3c:	0400                	addi	s0,sp,512
  3e:	0016                	c.slli	zero,0x5
  40:	0b3a0e03          	lb	t3,179(s4) # fffffffffffe00b3 <end+0xffffffff7ffd70b3>
  44:	0b390b3b          	0xb390b3b
  48:	1349                	addi	t1,t1,-14
  4a:	0000                	unimp
  4c:	3505                	addiw	a0,a0,-31
  4e:	4900                	lw	s0,16(a0)
  50:	06000013          	li	zero,96
  54:	0b0b000f          	0xb0b000f
  58:	1349                	addi	t1,t1,-14
  5a:	0000                	unimp
  5c:	03003407          	fld	fs0,48(zero) # 30 <_prog_start-0x7fffffd0>
  60:	3a0e                	fld	fs4,224(sp)
  62:	390b3b0b          	0x390b3b0b
  66:	3f13490b          	0x3f13490b
  6a:	3c19                	addiw	s8,s8,-26
  6c:	0019                	c.nop	6
  6e:	0800                	addi	s0,sp,16
  70:	0034                	addi	a3,sp,8
  72:	0b3a0e03          	lb	t3,179(s4)
  76:	0b390b3b          	0xb390b3b
  7a:	1349                	addi	t1,t1,-14
  7c:	061c                	addi	a5,sp,768
  7e:	0000                	unimp
  80:	2609                	addiw	a2,a2,2
  82:	4900                	lw	s0,16(a0)
  84:	0a000013          	li	zero,160
  88:	012e                	slli	sp,sp,0xb
  8a:	0e03193f 0b3b0b3a 	0xb3b0b3a0e03193f
  92:	0b39                	addi	s6,s6,14
  94:	13491927          	0x13491927
  98:	0111                	addi	sp,sp,4
  9a:	0712                	slli	a4,a4,0x4
  9c:	1840                	addi	s0,sp,52
  9e:	01194297          	auipc	t0,0x1194
  a2:	0b000013          	li	zero,176
  a6:	8289                	srli	a3,a3,0x2
  a8:	0101                	addi	sp,sp,0
  aa:	0111                	addi	sp,sp,4
  ac:	1331                	addi	t1,t1,-20
  ae:	0000                	unimp
  b0:	8a0c                	0x8a0c
  b2:	0182                	c.slli64	gp
  b4:	0200                	addi	s0,sp,256
  b6:	9118                	0x9118
  b8:	1842                	slli	a6,a6,0x30
  ba:	0000                	unimp
  bc:	2e0d                	addiw	t3,t3,3
  be:	3f00                	fld	fs0,56(a4)
  c0:	3c19                	addiw	s8,s8,-26
  c2:	6e19                	lui	t3,0x6
  c4:	030e                	slli	t1,t1,0x3
  c6:	3a0e                	fld	fs4,224(sp)
  c8:	390b3b0b          	0x390b3b0b
  cc:	0000000b          	0xb
  d0:	1101                	addi	sp,sp,-32
  d2:	2501                	sext.w	a0,a0
  d4:	130e                	slli	t1,t1,0x23
  d6:	1b0e030b          	0x1b0e030b
  da:	110e                	slli	sp,sp,0x23
  dc:	1201                	addi	tp,tp,-32
  de:	00171007          	0x171007
  e2:	0200                	addi	s0,sp,256
  e4:	0016                	c.slli	zero,0x5
  e6:	0b3a0e03          	lb	t3,179(s4)
  ea:	0b390b3b          	0xb390b3b
  ee:	1349                	addi	t1,t1,-14
  f0:	0000                	unimp
  f2:	0b000f03          	lb	t5,176(zero) # b0 <_prog_start-0x7fffff50>
  f6:	000e030b          	0xe030b
  fa:	0400                	addi	s0,sp,512
  fc:	0024                	addi	s1,sp,8
  fe:	0b3e0b0b          	0xb3e0b0b
 102:	00000e03          	lb	t3,0(zero) # 0 <_prog_start-0x80000000>
 106:	2405                	addiw	s0,s0,1
 108:	0b00                	addi	s0,sp,400
 10a:	030b3e0b          	0x30b3e0b
 10e:	0008                	0x8
 110:	0600                	addi	s0,sp,768
 112:	0035                	c.nop	13
 114:	1349                	addi	t1,t1,-14
 116:	0000                	unimp
 118:	03003407          	fld	fs0,48(zero) # 30 <_prog_start-0x7fffffd0>
 11c:	3a0e                	fld	fs4,224(sp)
 11e:	390b3b0b          	0x390b3b0b
 122:	1c13490b          	0x1c13490b
 126:	0006                	c.slli	zero,0x1
 128:	0800                	addi	s0,sp,16
 12a:	0b0b000f          	0xb0b000f
 12e:	1349                	addi	t1,t1,-14
 130:	0000                	unimp
 132:	2609                	addiw	a2,a2,2
 134:	4900                	lw	s0,16(a0)
 136:	0a000013          	li	zero,160
 13a:	012e                	slli	sp,sp,0xb
 13c:	0e03193f 0b3b0b3a 	0xb3b0b3a0e03193f
 144:	0b39                	addi	s6,s6,14
 146:	01111927          	0x1111927
 14a:	0712                	slli	a4,a4,0x4
 14c:	1840                	addi	s0,sp,52
 14e:	01194297          	auipc	t0,0x1194
 152:	0b000013          	li	zero,176
 156:	0005                	c.nop	1
 158:	0b3a0803          	lb	a6,179(s4)
 15c:	0b390b3b          	0xb390b3b
 160:	1349                	addi	t1,t1,-14
 162:	1702                	slli	a4,a4,0x20
 164:	0000                	unimp
 166:	180c                	addi	a1,sp,48
 168:	0000                	unimp
 16a:	0d00                	addi	s0,sp,656
 16c:	0034                	addi	a3,sp,8
 16e:	0b3a0803          	lb	a6,179(s4)
 172:	0b390b3b          	0xb390b3b
 176:	1349                	addi	t1,t1,-14
 178:	1802                	slli	a6,a6,0x20
 17a:	0000                	unimp
 17c:	340e                	fld	fs0,224(sp)
 17e:	0300                	addi	s0,sp,384
 180:	3a0e                	fld	fs4,224(sp)
 182:	390b3b0b          	0x390b3b0b
 186:	0213490b          	0x213490b
 18a:	0f000017          	auipc	zero,0xf000
 18e:	0034                	addi	a3,sp,8
 190:	0b3a0803          	lb	a6,179(s4)
 194:	0b390b3b          	0xb390b3b
 198:	1349                	addi	t1,t1,-14
 19a:	1702                	slli	a4,a4,0x20
 19c:	0000                	unimp
 19e:	0b10                	addi	a2,sp,400
 1a0:	5501                	li	a0,-32
 1a2:	00130117          	auipc	sp,0x130
 1a6:	1100                	addi	s0,sp,160
 1a8:	1755010b          	0x1755010b
 1ac:	0000                	unimp
 1ae:	1d12                	slli	s10,s10,0x24
 1b0:	3101                	addiw	sp,sp,-32
 1b2:	12011113          	0x12011113
 1b6:	590b5807          	0x590b5807
 1ba:	000b570b          	0xb570b
 1be:	1300                	addi	s0,sp,416
 1c0:	0005                	c.nop	1
 1c2:	1331                	addi	t1,t1,-20
 1c4:	0000                	unimp
 1c6:	3414                	fld	fa3,40(s0)
 1c8:	3100                	fld	fs0,32(a0)
 1ca:	15000013          	li	zero,336
 1ce:	0034                	addi	a3,sp,8
 1d0:	1331                	addi	t1,t1,-20
 1d2:	1702                	slli	a4,a4,0x20
 1d4:	0000                	unimp
 1d6:	1d16                	slli	s10,s10,0x25
 1d8:	3101                	addiw	sp,sp,-32
 1da:	55015213          	0x55015213
 1de:	590b5817          	auipc	a6,0x590b5
 1e2:	010b570b          	0x10b570b
 1e6:	17000013          	li	zero,368
 1ea:	0005                	c.nop	1
 1ec:	1331                	addi	t1,t1,-20
 1ee:	1702                	slli	a4,a4,0x20
 1f0:	0000                	unimp
 1f2:	8918                	0x8918
 1f4:	0182                	c.slli64	gp
 1f6:	1100                	addi	s0,sp,160
 1f8:	3101                	addiw	sp,sp,-32
 1fa:	19000013          	li	zero,400
 1fe:	011d                	addi	sp,sp,7
 200:	1331                	addi	t1,t1,-20
 202:	0111                	addi	sp,sp,4
 204:	0712                	slli	a4,a4,0x4
 206:	0b58                	addi	a4,sp,404
 208:	0b59                	addi	s6,s6,22
 20a:	13010b57          	0x13010b57
 20e:	0000                	unimp
 210:	341a                	fld	fs0,416(sp)
 212:	3100                	fld	fs0,32(a0)
 214:	00180213          	addi	tp,a6,1 # 590b51df <_prog_start-0x26f4ae21>
 218:	1b00                	addi	s0,sp,432
 21a:	011d                	addi	sp,sp,7
 21c:	1331                	addi	t1,t1,-20
 21e:	0152                	slli	sp,sp,0x14
 220:	1755                	addi	a4,a4,-11
 222:	0b58                	addi	a4,sp,404
 224:	0b59                	addi	s6,s6,22
 226:	00000b57          	0xb57
 22a:	051c                	addi	a5,sp,640
 22c:	0300                	addi	s0,sp,384
 22e:	3a0e                	fld	fs4,224(sp)
 230:	390b3b0b          	0x390b3b0b
 234:	0213490b          	0x213490b
 238:	1d000017          	auipc	zero,0x1d000
 23c:	0111010b          	0x111010b
 240:	0712                	slli	a4,a4,0x4
 242:	0000                	unimp
 244:	341e                	fld	fs0,480(sp)
 246:	0300                	addi	s0,sp,384
 248:	3a08                	fld	fa0,48(a2)
 24a:	390b3b0b          	0x390b3b0b
 24e:	1c13490b          	0x1c13490b
 252:	1f00000b          	0x1f00000b
 256:	012e                	slli	sp,sp,0xb
 258:	0b3a0e03          	lb	t3,179(s4)
 25c:	0b390b3b          	0xb390b3b
 260:	0b201927          	0xb201927
 264:	1301                	addi	t1,t1,-32
 266:	0000                	unimp
 268:	0520                	addi	s0,sp,648
 26a:	0300                	addi	s0,sp,384
 26c:	3a08                	fld	fa0,48(a2)
 26e:	390b3b0b          	0x390b3b0b
 272:	0013490b          	0x13490b
 276:	2100                	fld	fs0,0(a0)
 278:	0034                	addi	a3,sp,8
 27a:	0b3a0803          	lb	a6,179(s4)
 27e:	0b390b3b          	0xb390b3b
 282:	1349                	addi	t1,t1,-14
 284:	0000                	unimp
 286:	2e22                	fld	ft8,8(sp)
 288:	0301                	addi	t1,t1,0
 28a:	3a0e                	fld	fs4,224(sp)
 28c:	390b3b0b          	0x390b3b0b
 290:	2013490b          	0x2013490b
 294:	0013010b          	0x13010b
 298:	2300                	fld	fs0,0(a4)
 29a:	012e                	slli	sp,sp,0xb
 29c:	0b3a0e03          	lb	t3,179(s4)
 2a0:	0b390b3b          	0xb390b3b
 2a4:	0b201927          	0xb201927
 2a8:	0000                	unimp
	...

Disassembly of section .debug_aranges:

0000000000000000 <.debug_aranges>:
   0:	002c                	addi	a1,sp,8
   2:	0000                	unimp
   4:	0002                	c.slli64	zero
   6:	0000                	unimp
   8:	0000                	unimp
   a:	0008                	0x8
   c:	0000                	unimp
   e:	0000                	unimp
  10:	0000                	unimp
  12:	8000                	0x8000
  14:	0000                	unimp
  16:	0000                	unimp
  18:	0090                	addi	a2,sp,64
	...
  2e:	0000                	unimp
  30:	002c                	addi	a1,sp,8
  32:	0000                	unimp
  34:	0002                	c.slli64	zero
  36:	002e                	c.slli	zero,0xb
  38:	0000                	unimp
  3a:	0008                	0x8
  3c:	0000                	unimp
  3e:	0000                	unimp
  40:	0090                	addi	a2,sp,64
  42:	8000                	0x8000
  44:	0000                	unimp
  46:	0000                	unimp
  48:	002c                	addi	a1,sp,8
	...
  5e:	0000                	unimp
  60:	002c                	addi	a1,sp,8
  62:	0000                	unimp
  64:	0002                	c.slli64	zero
  66:	0174                	addi	a3,sp,140
  68:	0000                	unimp
  6a:	0008                	0x8
  6c:	0000                	unimp
  6e:	0000                	unimp
  70:	00bc                	addi	a5,sp,72
  72:	8000                	0x8000
  74:	0000                	unimp
  76:	0000                	unimp
  78:	0448                	addi	a0,sp,516
	...

Disassembly of section .debug_str:

0000000000000000 <.debug_str>:
   0:	6568                	ld	a0,200(a0)
   2:	6461                	lui	s0,0x18
   4:	532e                	lw	t1,232(sp)
   6:	2f00                	fld	fs0,24(a4)
   8:	6f68                	ld	a0,216(a4)
   a:	656d                	lui	a0,0x1b
   c:	6573752f          	0x6573752f
  10:	7372                	ld	t1,312(sp)
  12:	63736f2f          	0x63736f2f
  16:	7261                	lui	tp,0xffff8
  18:	632e                	ld	t1,200(sp)
  1a:	6c65                	lui	s8,0x19
  1c:	7369                	lui	t1,0xffffa
  1e:	726f572f          	0x726f572f
  22:	6170736b          	0x6170736b
  26:	632f6563          	bltu	t5,s2,650 <_prog_start-0x7ffff9b0>
  2a:	6968                	ld	a0,208(a0)
  2c:	7970                	ld	a2,240(a0)
  2e:	7261                	lui	tp,0xffff8
  30:	2f64                	fld	fs1,216(a4)
  32:	7066                	0x7066
  34:	732f6167          	0x732f6167
  38:	6372                	ld	t1,280(sp)
  3a:	69616d2f          	0x69616d2f
  3e:	2f6e                	fld	ft10,216(sp)
  40:	6572                	ld	a0,280(sp)
  42:	72756f73          	csrrsi	t5,0x727,10
  46:	2f736563          	bltu	t1,s7,330 <_prog_start-0x7ffffcd0>
  4a:	6376                	ld	t1,344(sp)
  4c:	2f373037          	lui	zero,0x2f373
  50:	7766                	ld	a4,120(sp)
  52:	642d                	lui	s0,0xb
  54:	6d65                	lui	s10,0x19
  56:	4e47006f          	j	7053a <_prog_start-0x7ff8fac6>
  5a:	2055                	0x2055
  5c:	5341                	li	t1,-16
  5e:	3220                	fld	fs0,96(a2)
  60:	332e                	fld	ft6,232(sp)
  62:	0032                	c.slli	zero,0xc
  64:	6f6c                	ld	a1,216(a4)
  66:	676e                	ld	a4,216(sp)
  68:	6c20                	ld	s0,88(s0)
  6a:	20676e6f          	jal	t3,76270 <_prog_start-0x7ff89d90>
  6e:	6e69                	lui	t3,0x1a
  70:	0074                	addi	a3,sp,12
  72:	20554e47          	fmsub.s	ft8,fa0,ft5,ft4,rmm
  76:	20313143          	fmadd.s	ft2,ft2,ft3,ft4,rup
  7a:	2e39                	addiw	t3,t3,14
  7c:	2e32                	fld	ft8,264(sp)
  7e:	2030                	fld	fa2,64(s0)
  80:	6d2d                	lui	s10,0xb
  82:	7261                	lui	tp,0xffff8
  84:	723d6863          	bltu	s10,gp,7b4 <_prog_start-0x7ffff84c>
  88:	3676                	fld	fa2,376(sp)
  8a:	6934                	ld	a3,80(a0)
  8c:	616d                	addi	sp,sp,240
  8e:	2d20                	fld	fs0,88(a0)
  90:	636d                	lui	t1,0x1b
  92:	6f6d                	lui	t5,0x1b
  94:	6564                	ld	s1,200(a0)
  96:	3d6c                	fld	fa1,248(a0)
  98:	656d                	lui	a0,0x1b
  9a:	6164                	ld	s1,192(a0)
  9c:	796e                	ld	s2,248(sp)
  9e:	2d20                	fld	fs0,88(a0)
  a0:	616d                	addi	sp,sp,240
  a2:	6962                	ld	s2,24(sp)
  a4:	6c3d                	lui	s8,0xf
  a6:	3670                	fld	fa2,232(a2)
  a8:	2034                	fld	fa3,64(s0)
  aa:	6d2d                	lui	s10,0xb
  ac:	7574                	ld	a3,232(a0)
  ae:	656e                	ld	a0,216(sp)
  b0:	723d                	lui	tp,0xfffef
  b2:	656b636f          	jal	t1,b6708 <_prog_start-0x7ff498f8>
  b6:	2074                	fld	fa3,192(s0)
  b8:	672d                	lui	a4,0xb
  ba:	2d20                	fld	fs0,88(a0)
  bc:	2d20324f          	0x2d20324f
  c0:	3d647473          	csrrci	s0,0x3d6,8
  c4:	31756e67          	0x31756e67
  c8:	2031                	0x2031
  ca:	662d                	lui	a2,0xb
  cc:	6f6e                	ld	t5,216(sp)
  ce:	632d                	lui	t1,0xb
  d0:	6f6d6d6f          	jal	s10,d67c6 <_prog_start-0x7ff2983a>
  d4:	006e                	c.slli	zero,0x1b
  d6:	6974706f          	j	47f6c <_prog_start-0x7ffb8094>
  da:	646e                	ld	s0,216(sp)
  dc:	5f00                	lw	s0,56(a4)
  de:	755f 6e69 3374      	0x33746e69755f
  e4:	5f32                	lw	t5,44(sp)
  e6:	0074                	addi	a3,sp,12
  e8:	6f6c                	ld	a1,216(a4)
  ea:	676e                	ld	a4,216(sp)
  ec:	7520                	ld	s0,104(a0)
  ee:	736e                	ld	t1,248(sp)
  f0:	6769                	lui	a4,0x1a
  f2:	656e                	ld	a0,216(sp)
  f4:	2064                	fld	fs1,192(s0)
  f6:	6e69                	lui	t3,0x1a
  f8:	0074                	addi	a3,sp,12
  fa:	6574706f          	j	47f50 <_prog_start-0x7ffb80b0>
  fe:	7272                	ld	tp,312(sp)
 100:	7500                	ld	s0,40(a0)
 102:	7261                	lui	tp,0xffff8
 104:	0074                	addi	a3,sp,12
 106:	6e75                	lui	t3,0x1d
 108:	6e676973          	csrrsi	s2,0x6e6,14
 10c:	6465                	lui	s0,0x19
 10e:	6320                	ld	s0,64(a4)
 110:	6168                	ld	a0,192(a0)
 112:	0072                	c.slli	zero,0x1c
 114:	616d                	addi	sp,sp,240
 116:	6e69                	lui	t3,0x1a
 118:	6f00                	ld	s0,24(a4)
 11a:	7470                	ld	a2,232(s0)
 11c:	0074706f          	j	47922 <_prog_start-0x7ffb86de>
 120:	726f6873          	csrrsi	a6,0x726,30
 124:	2074                	fld	fa3,192(s0)
 126:	6e75                	lui	t3,0x1d
 128:	6e676973          	csrrsi	s2,0x6e6,14
 12c:	6465                	lui	s0,0x19
 12e:	6920                	ld	s0,80(a0)
 130:	746e                	ld	s0,248(sp)
 132:	6f00                	ld	s0,24(a4)
 134:	7470                	ld	a2,232(s0)
 136:	6572                	ld	a0,280(sp)
 138:	00746573          	csrrsi	a0,0x7,8
 13c:	6f6c                	ld	a1,216(a4)
 13e:	676e                	ld	a4,216(sp)
 140:	6420                	ld	s0,72(s0)
 142:	6c62756f          	jal	a0,27808 <_prog_start-0x7ffd87f8>
 146:	0065                	c.nop	25
 148:	6174706f          	j	47f5e <_prog_start-0x7ffb80a2>
 14c:	6772                	ld	a4,280(sp)
 14e:	7300                	ld	s0,32(a4)
 150:	6f68                	ld	a0,216(a4)
 152:	7472                	ld	s0,312(sp)
 154:	6920                	ld	s0,80(a0)
 156:	746e                	ld	s0,248(sp)
 158:	6800                	ld	s0,16(s0)
 15a:	6c65                	lui	s8,0x19
 15c:	6f6c                	ld	a1,216(a4)
 15e:	632e                	ld	t1,200(sp)
 160:	6500                	ld	s0,8(a0)
 162:	766e                	ld	a2,248(sp)
 164:	7269                	lui	tp,0xffffa
 166:	69006e6f          	jal	t3,67f6 <_prog_start-0x7fff980a>
 16a:	68635f73          	csrrwi	t5,0x686,6
 16e:	7261                	lui	tp,0xffff8
 170:	5f00                	lw	s0,56(a4)
 172:	695f 746e 3233      	0x3233746e695f
 178:	745f 6b00 7270      	0x72706b00745f
 17e:	6e69                	lui	t3,0x1a
 180:	6674                	ld	a3,200(a2)
 182:	632e                	ld	t1,200(sp)
 184:	6900                	ld	s0,16(a0)
 186:	6f6c5f73          	csrrwi	t5,0x6f6,24
 18a:	676e                	ld	a4,216(sp)
 18c:	6b00                	ld	s0,16(a4)
 18e:	6572                	ld	a0,280(sp)
 190:	6461                	lui	s0,0x18
 192:	5f00                	lw	s0,56(a4)
 194:	7475706b          	0x7475706b
 198:	706b0073          	0x706b0073
 19c:	6972                	ld	s2,280(sp)
 19e:	746e                	ld	s0,248(sp)
 1a0:	0066                	c.slli	zero,0x19
 1a2:	6972776b          	0x6972776b
 1a6:	6574                	ld	a3,200(a0)
 1a8:	5f00                	lw	s0,56(a4)
 1aa:	675f 756e 5f63      	0x5f63756e675f
 1b0:	6176                	ld	sp,344(sp)
 1b2:	6c5f 7369 0074      	0x7473696c5f
 1b8:	655f 6373 7061      	0x70616373655f
 1be:	5f65                	li	t5,-7
 1c0:	72616863          	bltu	sp,t1,8f0 <_prog_start-0x7ffff710>
 1c4:	6900                	ld	s0,16(a0)
 1c6:	6f665f73          	csrrwi	t5,0x6f6,12
 1ca:	6d72                	ld	s10,280(sp)
 1cc:	7461                	lui	s0,0xffff8
 1ce:	5f00                	lw	s0,56(a4)
 1d0:	7465676b          	0x7465676b
 1d4:	6f630073          	0x6f630073
 1d8:	6e75                	lui	t3,0x1d
 1da:	0074                	addi	a3,sp,12
 1dc:	5f5f 7562 6c69      	0x6c6975625f5f
 1e2:	6974                	ld	a3,208(a0)
 1e4:	5f6e                	lw	t5,248(sp)
 1e6:	6176                	ld	sp,344(sp)
 1e8:	6c5f 7369 0074      	0x7473696c5f
 1ee:	7475706b          	0x7475706b
 1f2:	676b0063          	beq	s6,s6,852 <_prog_start-0x7ffff7ae>
 1f6:	7465                	lui	s0,0xffff9
 1f8:	425f0063          	beq	t5,t0,618 <_prog_start-0x7ffff9e8>
 1fc:	006c6f6f          	jal	t5,c6202 <_prog_start-0x7ff39dfe>

Disassembly of section .debug_ranges:

0000000000000000 <.debug_ranges>:
   0:	0090                	addi	a2,sp,64
   2:	8000                	0x8000
   4:	0000                	unimp
   6:	0000                	unimp
   8:	00bc                	addi	a5,sp,72
   a:	8000                	0x8000
	...
  20:	0018                	0x18
  22:	0000                	unimp
  24:	0000                	unimp
  26:	0000                	unimp
  28:	001c                	0x1c
  2a:	0000                	unimp
  2c:	0000                	unimp
  2e:	0000                	unimp
  30:	0020                	addi	s0,sp,8
  32:	0000                	unimp
  34:	0000                	unimp
  36:	0000                	unimp
  38:	0034                	addi	a3,sp,8
	...
  4e:	0000                	unimp
  50:	0054                	addi	a3,sp,4
  52:	0000                	unimp
  54:	0000                	unimp
  56:	0000                	unimp
  58:	0058                	addi	a4,sp,4
  5a:	0000                	unimp
  5c:	0000                	unimp
  5e:	0000                	unimp
  60:	0060                	addi	s0,sp,12
  62:	0000                	unimp
  64:	0000                	unimp
  66:	0000                	unimp
  68:	006c                	addi	a1,sp,12
	...
  7e:	0000                	unimp
  80:	00b0                	addi	a2,sp,72
  82:	0000                	unimp
  84:	0000                	unimp
  86:	0000                	unimp
  88:	00b4                	addi	a3,sp,72
  8a:	0000                	unimp
  8c:	0000                	unimp
  8e:	0000                	unimp
  90:	00b8                	addi	a4,sp,72
  92:	0000                	unimp
  94:	0000                	unimp
  96:	0000                	unimp
  98:	00c8                	addi	a0,sp,68
  9a:	0000                	unimp
  9c:	0000                	unimp
  9e:	0000                	unimp
  a0:	00c8                	addi	a0,sp,68
  a2:	0000                	unimp
  a4:	0000                	unimp
  a6:	0000                	unimp
  a8:	00cc                	addi	a1,sp,68
  aa:	0000                	unimp
  ac:	0000                	unimp
  ae:	0000                	unimp
  b0:	00d8                	addi	a4,sp,68
  b2:	0000                	unimp
  b4:	0000                	unimp
  b6:	0000                	unimp
  b8:	00dc                	addi	a5,sp,68
	...
  ce:	0000                	unimp
  d0:	02a8                	addi	a0,sp,328
  d2:	0000                	unimp
  d4:	0000                	unimp
  d6:	0000                	unimp
  d8:	02b8                	addi	a4,sp,328
  da:	0000                	unimp
  dc:	0000                	unimp
  de:	0000                	unimp
  e0:	02c8                	addi	a0,sp,324
  e2:	0000                	unimp
  e4:	0000                	unimp
  e6:	0000                	unimp
  e8:	02d4                	addi	a3,sp,324
	...
  fe:	0000                	unimp
 100:	02b8                	addi	a4,sp,328
 102:	0000                	unimp
 104:	0000                	unimp
 106:	0000                	unimp
 108:	02bc                	addi	a5,sp,328
 10a:	0000                	unimp
 10c:	0000                	unimp
 10e:	0000                	unimp
 110:	0358                	addi	a4,sp,388
 112:	0000                	unimp
 114:	0000                	unimp
 116:	0000                	unimp
 118:	03a4                	addi	s1,sp,456
 11a:	0000                	unimp
 11c:	0000                	unimp
 11e:	0000                	unimp
 120:	0438                	addi	a4,sp,520
 122:	0000                	unimp
 124:	0000                	unimp
 126:	0000                	unimp
 128:	0448                	addi	a0,sp,516
	...
 13e:	0000                	unimp
 140:	02b8                	addi	a4,sp,328
 142:	0000                	unimp
 144:	0000                	unimp
 146:	0000                	unimp
 148:	02bc                	addi	a5,sp,328
 14a:	0000                	unimp
 14c:	0000                	unimp
 14e:	0000                	unimp
 150:	037c                	addi	a5,sp,396
 152:	0000                	unimp
 154:	0000                	unimp
 156:	0000                	unimp
 158:	039c                	addi	a5,sp,448
	...
 16e:	0000                	unimp
 170:	03bc                	addi	a5,sp,456
 172:	0000                	unimp
 174:	0000                	unimp
 176:	0000                	unimp
 178:	03bc                	addi	a5,sp,456
 17a:	0000                	unimp
 17c:	0000                	unimp
 17e:	0000                	unimp
 180:	03c4                	addi	s1,sp,452
 182:	0000                	unimp
 184:	0000                	unimp
 186:	0000                	unimp
 188:	03d0                	addi	a2,sp,452
	...
 19e:	0000                	unimp
 1a0:	03e8                	addi	a0,sp,460
 1a2:	0000                	unimp
 1a4:	0000                	unimp
 1a6:	0000                	unimp
 1a8:	03e8                	addi	a0,sp,460
 1aa:	0000                	unimp
 1ac:	0000                	unimp
 1ae:	0000                	unimp
 1b0:	03f0                	addi	a2,sp,460
 1b2:	0000                	unimp
 1b4:	0000                	unimp
 1b6:	0000                	unimp
 1b8:	0410                	addi	a2,sp,512
	...

Disassembly of section .debug_frame:

0000000000000000 <.debug_frame>:
   0:	000c                	0xc
   2:	0000                	unimp
   4:	ffff                	0xffff
   6:	ffff                	0xffff
   8:	0001                	nop
   a:	7c01                	lui	s8,0xfffe0
   c:	0d01                	addi	s10,s10,0
   e:	0002                	c.slli64	zero
  10:	001c                	0x1c
  12:	0000                	unimp
  14:	0000                	unimp
  16:	0000                	unimp
  18:	0090                	addi	a2,sp,64
  1a:	8000                	0x8000
  1c:	0000                	unimp
  1e:	0000                	unimp
  20:	002c                	addi	a1,sp,8
  22:	0000                	unimp
  24:	0000                	unimp
  26:	0000                	unimp
  28:	0e44                	addi	s1,sp,788
  2a:	4810                	lw	a2,16(s0)
  2c:	0488                	addi	a0,sp,576
  2e:	0281                	addi	t0,t0,0
  30:	000c                	0xc
  32:	0000                	unimp
  34:	ffff                	0xffff
  36:	ffff                	0xffff
  38:	0001                	nop
  3a:	7c01                	lui	s8,0xfffe0
  3c:	0d01                	addi	s10,s10,0
  3e:	0002                	c.slli64	zero
  40:	0014                	0x14
  42:	0000                	unimp
  44:	0030                	addi	a2,sp,8
  46:	0000                	unimp
  48:	00bc                	addi	a5,sp,72
  4a:	8000                	0x8000
  4c:	0000                	unimp
  4e:	0000                	unimp
  50:	003c                	addi	a5,sp,8
  52:	0000                	unimp
  54:	0000                	unimp
  56:	0000                	unimp
  58:	0014                	0x14
  5a:	0000                	unimp
  5c:	0030                	addi	a2,sp,8
  5e:	0000                	unimp
  60:	00f8                	addi	a4,sp,76
  62:	8000                	0x8000
  64:	0000                	unimp
  66:	0000                	unimp
  68:	0038                	addi	a4,sp,8
  6a:	0000                	unimp
  6c:	0000                	unimp
  6e:	0000                	unimp
  70:	0014                	0x14
  72:	0000                	unimp
  74:	0030                	addi	a2,sp,8
  76:	0000                	unimp
  78:	0130                	addi	a2,sp,136
  7a:	8000                	0x8000
  7c:	0000                	unimp
  7e:	0000                	unimp
  80:	003c                	addi	a5,sp,8
  82:	0000                	unimp
  84:	0000                	unimp
  86:	0000                	unimp
  88:	0014                	0x14
  8a:	0000                	unimp
  8c:	0030                	addi	a2,sp,8
  8e:	0000                	unimp
  90:	016c                	addi	a1,sp,140
  92:	8000                	0x8000
  94:	0000                	unimp
  96:	0000                	unimp
  98:	0034                	addi	a3,sp,8
  9a:	0000                	unimp
  9c:	0000                	unimp
  9e:	0000                	unimp
  a0:	0014                	0x14
  a2:	0000                	unimp
  a4:	0030                	addi	a2,sp,8
  a6:	0000                	unimp
  a8:	01a0                	addi	s0,sp,200
  aa:	8000                	0x8000
  ac:	0000                	unimp
  ae:	0000                	unimp
  b0:	014c                	addi	a1,sp,132
  b2:	0000                	unimp
  b4:	0000                	unimp
  b6:	0000                	unimp
  b8:	004c                	addi	a1,sp,4
  ba:	0000                	unimp
  bc:	0030                	addi	a2,sp,8
  be:	0000                	unimp
  c0:	02ec                	addi	a1,sp,332
  c2:	8000                	0x8000
  c4:	0000                	unimp
  c6:	0000                	unimp
  c8:	0218                	addi	a4,sp,256
  ca:	0000                	unimp
  cc:	0000                	unimp
  ce:	0000                	unimp
  d0:	0e44                	addi	s1,sp,788
  d2:	01b0                	addi	a2,sp,200
  d4:	8170                	0x8170
  d6:	8812                	mv	a6,tp
  d8:	8914                	0x8914
  da:	9216                	add	tp,tp,t0
  dc:	9318                	0x9318
  de:	941a                	add	s0,s0,t1
  e0:	951c                	0x951c
  e2:	961e                	add	a2,a2,t2
  e4:	9720                	0x9720
  e6:	9822                	add	a6,a6,s0
  e8:	9924                	0x9924
  ea:	0226                	slli	tp,tp,0x9
  ec:	0abc                	addi	a5,sp,344
  ee:	44c1                	li	s1,16
  f0:	44c8                	lw	a0,12(s1)
  f2:	44c9                	li	s1,18
  f4:	44d2                	lw	s1,20(sp)
  f6:	44d444d3          	0x44d444d3
  fa:	44d5                	li	s1,21
  fc:	44d6                	lw	s1,84(sp)
  fe:	44d844d7          	0x44d844d7
 102:	44d9                	li	s1,22
 104:	000e                	c.slli	zero,0x3
 106:	0b44                	addi	s1,sp,404

Disassembly of section .debug_loc:

0000000000000000 <.debug_loc>:
   0:	0230                	addi	a2,sp,264
   2:	0000                	unimp
   4:	0000                	unimp
   6:	0000                	unimp
   8:	0288                	addi	a0,sp,320
   a:	0000                	unimp
   c:	0000                	unimp
   e:	0000                	unimp
  10:	0001                	nop
  12:	885a                	mv	a6,s6
  14:	0002                	c.slli64	zero
  16:	0000                	unimp
  18:	0000                	unimp
  1a:	9800                	0x9800
  1c:	0002                	c.slli64	zero
  1e:	0000                	unimp
  20:	0000                	unimp
  22:	0300                	addi	s0,sp,384
  24:	7a00                	ld	s0,48(a2)
  26:	9f01                	subw	a4,a4,s0
  28:	0298                	addi	a4,sp,320
  2a:	0000                	unimp
  2c:	0000                	unimp
  2e:	0000                	unimp
  30:	02dc                	addi	a5,sp,324
  32:	0000                	unimp
  34:	0000                	unimp
  36:	0000                	unimp
  38:	0001                	nop
  3a:	dc66                	sw	s9,56(sp)
  3c:	0002                	c.slli64	zero
  3e:	0000                	unimp
  40:	0000                	unimp
  42:	e800                	sd	s0,16(s0)
  44:	0002                	c.slli64	zero
  46:	0000                	unimp
  48:	0000                	unimp
  4a:	0100                	addi	s0,sp,128
  4c:	5e00                	lw	s0,56(a2)
  4e:	02e8                	addi	a0,sp,332
  50:	0000                	unimp
  52:	0000                	unimp
  54:	0000                	unimp
  56:	0318                	addi	a4,sp,384
  58:	0000                	unimp
  5a:	0000                	unimp
  5c:	0000                	unimp
  5e:	0001                	nop
  60:	1866                	slli	a6,a6,0x39
  62:	00000003          	lb	zero,0(zero) # 0 <_prog_start-0x80000000>
  66:	0000                	unimp
  68:	1c00                	addi	s0,sp,560
  6a:	00000003          	lb	zero,0(zero) # 0 <_prog_start-0x80000000>
  6e:	0000                	unimp
  70:	0100                	addi	s0,sp,128
  72:	5e00                	lw	s0,56(a2)
  74:	0350                	addi	a2,sp,388
  76:	0000                	unimp
  78:	0000                	unimp
  7a:	0000                	unimp
  7c:	0448                	addi	a0,sp,516
  7e:	0000                	unimp
  80:	0000                	unimp
  82:	0000                	unimp
  84:	0001                	nop
  86:	0066                	c.slli	zero,0x19
	...
  94:	0000                	unimp
  96:	8800                	0x8800
  98:	0002                	c.slli64	zero
  9a:	0000                	unimp
  9c:	0000                	unimp
  9e:	bc00                	fsd	fs0,56(s0)
  a0:	0002                	c.slli64	zero
  a2:	0000                	unimp
  a4:	0000                	unimp
  a6:	0200                	addi	s0,sp,256
  a8:	3000                	fld	fs0,32(s0)
  aa:	bc9f 0002 0000      	0x2bc9f
  b0:	0000                	unimp
  b2:	c000                	sw	s0,0(s0)
  b4:	0002                	c.slli64	zero
  b6:	0000                	unimp
  b8:	0000                	unimp
  ba:	0100                	addi	s0,sp,128
  bc:	5900                	lw	s0,48(a0)
  be:	02c0                	addi	s0,sp,324
  c0:	0000                	unimp
  c2:	0000                	unimp
  c4:	0000                	unimp
  c6:	02d4                	addi	a3,sp,324
  c8:	0000                	unimp
  ca:	0000                	unimp
  cc:	0000                	unimp
  ce:	0002                	c.slli64	zero
  d0:	9f30                	0x9f30
  d2:	02d4                	addi	a3,sp,324
  d4:	0000                	unimp
  d6:	0000                	unimp
  d8:	0000                	unimp
  da:	031c                	addi	a5,sp,384
  dc:	0000                	unimp
  de:	0000                	unimp
  e0:	0000                	unimp
  e2:	0001                	nop
  e4:	5059                	c.li	zero,-10
  e6:	00000003          	lb	zero,0(zero) # 0 <_prog_start-0x80000000>
  ea:	0000                	unimp
  ec:	b000                	fsd	fs0,32(s0)
  ee:	00000003          	lb	zero,0(zero) # 0 <_prog_start-0x80000000>
  f2:	0000                	unimp
  f4:	0100                	addi	s0,sp,128
  f6:	5900                	lw	s0,48(a0)
  f8:	03b4                	addi	a3,sp,456
  fa:	0000                	unimp
  fc:	0000                	unimp
  fe:	0000                	unimp
 100:	03dc                	addi	a5,sp,452
 102:	0000                	unimp
 104:	0000                	unimp
 106:	0000                	unimp
 108:	0001                	nop
 10a:	e059                	bnez	s0,190 <_prog_start-0x7ffffe70>
 10c:	00000003          	lb	zero,0(zero) # 0 <_prog_start-0x80000000>
 110:	0000                	unimp
 112:	1c00                	addi	s0,sp,560
 114:	0004                	0x4
 116:	0000                	unimp
 118:	0000                	unimp
 11a:	0100                	addi	s0,sp,128
 11c:	5900                	lw	s0,48(a0)
 11e:	0420                	addi	s0,sp,520
 120:	0000                	unimp
 122:	0000                	unimp
 124:	0000                	unimp
 126:	0438                	addi	a4,sp,520
 128:	0000                	unimp
 12a:	0000                	unimp
 12c:	0000                	unimp
 12e:	0002                	c.slli64	zero
 130:	9f30                	0x9f30
 132:	0438                	addi	a4,sp,520
 134:	0000                	unimp
 136:	0000                	unimp
 138:	0000                	unimp
 13a:	0448                	addi	a0,sp,516
 13c:	0000                	unimp
 13e:	0000                	unimp
 140:	0000                	unimp
 142:	0001                	nop
 144:	0059                	c.nop	22
	...
 152:	0000                	unimp
 154:	8800                	0x8800
 156:	0002                	c.slli64	zero
 158:	0000                	unimp
 15a:	0000                	unimp
 15c:	bc00                	fsd	fs0,56(s0)
 15e:	0002                	c.slli64	zero
 160:	0000                	unimp
 162:	0000                	unimp
 164:	0200                	addi	s0,sp,256
 166:	3000                	fld	fs0,32(s0)
 168:	bc9f 0002 0000      	0x2bc9f
 16e:	0000                	unimp
 170:	1c00                	addi	s0,sp,560
 172:	00000003          	lb	zero,0(zero) # 0 <_prog_start-0x80000000>
 176:	0000                	unimp
 178:	0100                	addi	s0,sp,128
 17a:	6300                	ld	s0,0(a4)
 17c:	0350                	addi	a2,sp,388
 17e:	0000                	unimp
 180:	0000                	unimp
 182:	0000                	unimp
 184:	03ac                	addi	a1,sp,456
 186:	0000                	unimp
 188:	0000                	unimp
 18a:	0000                	unimp
 18c:	0001                	nop
 18e:	0003b463          	0x3b463
 192:	0000                	unimp
 194:	0000                	unimp
 196:	d800                	sw	s0,48(s0)
 198:	00000003          	lb	zero,0(zero) # 0 <_prog_start-0x80000000>
 19c:	0000                	unimp
 19e:	0100                	addi	s0,sp,128
 1a0:	6300                	ld	s0,0(a4)
 1a2:	03e0                	addi	s0,sp,460
 1a4:	0000                	unimp
 1a6:	0000                	unimp
 1a8:	0000                	unimp
 1aa:	0418                	addi	a4,sp,512
 1ac:	0000                	unimp
 1ae:	0000                	unimp
 1b0:	0000                	unimp
 1b2:	0001                	nop
 1b4:	00042063          	0x42063
 1b8:	0000                	unimp
 1ba:	0000                	unimp
 1bc:	4800                	lw	s0,16(s0)
 1be:	0004                	0x4
 1c0:	0000                	unimp
 1c2:	0000                	unimp
 1c4:	0100                	addi	s0,sp,128
 1c6:	6300                	ld	s0,0(a4)
	...
 1d8:	0288                	addi	a0,sp,320
 1da:	0000                	unimp
 1dc:	0000                	unimp
 1de:	0000                	unimp
 1e0:	02bc                	addi	a5,sp,328
 1e2:	0000                	unimp
 1e4:	0000                	unimp
 1e6:	0000                	unimp
 1e8:	0002                	c.slli64	zero
 1ea:	9f30                	0x9f30
 1ec:	02bc                	addi	a5,sp,328
 1ee:	0000                	unimp
 1f0:	0000                	unimp
 1f2:	0000                	unimp
 1f4:	031c                	addi	a5,sp,384
 1f6:	0000                	unimp
 1f8:	0000                	unimp
 1fa:	0000                	unimp
 1fc:	0001                	nop
 1fe:	5064                	lw	s1,100(s0)
 200:	00000003          	lb	zero,0(zero) # 0 <_prog_start-0x80000000>
 204:	0000                	unimp
 206:	5400                	lw	s0,40(s0)
 208:	00000003          	lb	zero,0(zero) # 0 <_prog_start-0x80000000>
 20c:	0000                	unimp
 20e:	0100                	addi	s0,sp,128
 210:	6400                	ld	s0,8(s0)
 212:	0358                	addi	a4,sp,388
 214:	0000                	unimp
 216:	0000                	unimp
 218:	0000                	unimp
 21a:	03a8                	addi	a0,sp,456
 21c:	0000                	unimp
 21e:	0000                	unimp
 220:	0000                	unimp
 222:	0001                	nop
 224:	b464                	fsd	fs1,232(s0)
 226:	00000003          	lb	zero,0(zero) # 0 <_prog_start-0x80000000>
 22a:	0000                	unimp
 22c:	d400                	sw	s0,40(s0)
 22e:	00000003          	lb	zero,0(zero) # 0 <_prog_start-0x80000000>
 232:	0000                	unimp
 234:	0100                	addi	s0,sp,128
 236:	6400                	ld	s0,8(s0)
 238:	03e0                	addi	s0,sp,460
 23a:	0000                	unimp
 23c:	0000                	unimp
 23e:	0000                	unimp
 240:	0414                	addi	a3,sp,512
 242:	0000                	unimp
 244:	0000                	unimp
 246:	0000                	unimp
 248:	0001                	nop
 24a:	2064                	fld	fs1,192(s0)
 24c:	0004                	0x4
 24e:	0000                	unimp
 250:	0000                	unimp
 252:	4800                	lw	s0,16(s0)
 254:	0004                	0x4
 256:	0000                	unimp
 258:	0000                	unimp
 25a:	0100                	addi	s0,sp,128
 25c:	6400                	ld	s0,8(s0)
	...
 26e:	0288                	addi	a0,sp,320
 270:	0000                	unimp
 272:	0000                	unimp
 274:	0000                	unimp
 276:	02d4                	addi	a3,sp,324
 278:	0000                	unimp
 27a:	0000                	unimp
 27c:	0000                	unimp
 27e:	0001                	nop
 280:	dc5f 0002 0000      	0x2dc5f
 286:	0000                	unimp
 288:	f000                	sd	s0,32(s0)
 28a:	0002                	c.slli64	zero
 28c:	0000                	unimp
 28e:	0000                	unimp
 290:	0100                	addi	s0,sp,128
 292:	5f00                	lw	s0,56(a4)
 294:	0318                	addi	a4,sp,384
 296:	0000                	unimp
 298:	0000                	unimp
 29a:	0000                	unimp
 29c:	0350                	addi	a2,sp,388
 29e:	0000                	unimp
 2a0:	0000                	unimp
 2a2:	0000                	unimp
 2a4:	0001                	nop
 2a6:	205f 0004 0000      	0x4205f
 2ac:	0000                	unimp
 2ae:	3300                	fld	fs0,32(a4)
 2b0:	0004                	0x4
 2b2:	0000                	unimp
 2b4:	0000                	unimp
 2b6:	0100                	addi	s0,sp,128
 2b8:	5f00                	lw	s0,56(a4)
	...
 2ca:	036c                	addi	a1,sp,396
 2cc:	0000                	unimp
 2ce:	0000                	unimp
 2d0:	0000                	unimp
 2d2:	0378                	addi	a4,sp,396
 2d4:	0000                	unimp
 2d6:	0000                	unimp
 2d8:	0000                	unimp
 2da:	0001                	nop
 2dc:	7c5a                	ld	s8,432(sp)
 2de:	00000003          	lb	zero,0(zero) # 0 <_prog_start-0x80000000>
 2e2:	0000                	unimp
 2e4:	a400                	fsd	fs0,8(s0)
 2e6:	00000003          	lb	zero,0(zero) # 0 <_prog_start-0x80000000>
 2ea:	0000                	unimp
 2ec:	0100                	addi	s0,sp,128
 2ee:	5a00                	lw	s0,48(a2)
	...
 300:	037c                	addi	a5,sp,396
 302:	0000                	unimp
 304:	0000                	unimp
 306:	0000                	unimp
 308:	03a4                	addi	s1,sp,456
 30a:	0000                	unimp
 30c:	0000                	unimp
 30e:	0000                	unimp
 310:	0001                	nop
 312:	3c5d                	addiw	s8,s8,-9
 314:	0004                	0x4
 316:	0000                	unimp
 318:	0000                	unimp
 31a:	4800                	lw	s0,16(s0)
 31c:	0004                	0x4
 31e:	0000                	unimp
 320:	0000                	unimp
 322:	0300                	addi	s0,sp,384
 324:	0800                	addi	s0,sp,16
 326:	9f3c                	0x9f3c
	...
 338:	0384                	addi	s1,sp,448
 33a:	0000                	unimp
 33c:	0000                	unimp
 33e:	0000                	unimp
 340:	0390                	addi	a2,sp,448
 342:	0000                	unimp
 344:	0000                	unimp
 346:	0000                	unimp
 348:	0001                	nop
 34a:	905c                	0x905c
 34c:	00000003          	lb	zero,0(zero) # 0 <_prog_start-0x80000000>
 350:	0000                	unimp
 352:	a000                	fsd	fs0,0(s0)
 354:	00000003          	lb	zero,0(zero) # 0 <_prog_start-0x80000000>
 358:	0000                	unimp
 35a:	0b00                	addi	s0,sp,400
 35c:	7a00                	ld	s0,48(a2)
 35e:	7d00                	ld	s0,56(a0)
 360:	0800                	addi	s0,sp,16
 362:	1aff                	0x1aff
 364:	3f25                	addiw	t5,t5,-23
 366:	9f1a                	add	t5,t5,t1
	...
 378:	0394                	addi	a3,sp,448
 37a:	0000                	unimp
 37c:	0000                	unimp
 37e:	0000                	unimp
 380:	039c                	addi	a5,sp,448
 382:	0000                	unimp
 384:	0000                	unimp
 386:	0000                	unimp
 388:	0001                	nop
 38a:	005e                	c.slli	zero,0x17
	...
 398:	0000                	unimp
 39a:	cc00                	sw	s0,24(s0)
 39c:	0002                	c.slli64	zero
 39e:	0000                	unimp
 3a0:	0000                	unimp
 3a2:	d400                	sw	s0,40(s0)
 3a4:	0002                	c.slli64	zero
 3a6:	0000                	unimp
 3a8:	0000                	unimp
 3aa:	0100                	addi	s0,sp,128
 3ac:	5e00                	lw	s0,56(a2)
	...
 3be:	03bc                	addi	a5,sp,456
 3c0:	0000                	unimp
 3c2:	0000                	unimp
 3c4:	0000                	unimp
 3c6:	03e0                	addi	s0,sp,460
 3c8:	0000                	unimp
 3ca:	0000                	unimp
 3cc:	0000                	unimp
 3ce:	0001                	nop
 3d0:	005f 0000 0000      	0x5f
	...
 3de:	0000                	unimp
 3e0:	bc00                	fsd	fs0,56(s0)
 3e2:	00000003          	lb	zero,0(zero) # 0 <_prog_start-0x80000000>
 3e6:	0000                	unimp
 3e8:	e000                	sd	s0,0(s0)
 3ea:	00000003          	lb	zero,0(zero) # 0 <_prog_start-0x80000000>
 3ee:	0000                	unimp
 3f0:	0400                	addi	s0,sp,512
 3f2:	4900                	lw	s0,16(a0)
 3f4:	244a                	fld	fs0,144(sp)
 3f6:	009f 0000 0000      	0x9f
	...
 404:	0000                	unimp
 406:	c800                	sw	s0,16(s0)
 408:	00000003          	lb	zero,0(zero) # 0 <_prog_start-0x80000000>
 40c:	0000                	unimp
 40e:	e000                	sd	s0,0(s0)
 410:	00000003          	lb	zero,0(zero) # 0 <_prog_start-0x80000000>
 414:	0000                	unimp
 416:	0100                	addi	s0,sp,128
 418:	5e00                	lw	s0,56(a2)
	...
 42a:	03e8                	addi	a0,sp,460
 42c:	0000                	unimp
 42e:	0000                	unimp
 430:	0000                	unimp
 432:	0420                	addi	s0,sp,520
 434:	0000                	unimp
 436:	0000                	unimp
 438:	0000                	unimp
 43a:	0001                	nop
 43c:	005d                	c.nop	23
	...
 44a:	0000                	unimp
 44c:	f400                	sd	s0,40(s0)
 44e:	00000003          	lb	zero,0(zero) # 0 <_prog_start-0x80000000>
 452:	0000                	unimp
 454:	0800                	addi	s0,sp,16
 456:	0004                	0x4
 458:	0000                	unimp
 45a:	0000                	unimp
 45c:	0100                	addi	s0,sp,128
 45e:	5f00                	lw	s0,56(a4)
 460:	040c                	addi	a1,sp,512
 462:	0000                	unimp
 464:	0000                	unimp
 466:	0000                	unimp
 468:	0420                	addi	s0,sp,520
 46a:	0000                	unimp
 46c:	0000                	unimp
 46e:	0000                	unimp
 470:	0001                	nop
 472:	005f 0000 0000      	0x5f
	...
 480:	0000                	unimp
 482:	fc00                	sd	s0,56(s0)
 484:	00000003          	lb	zero,0(zero) # 0 <_prog_start-0x80000000>
 488:	0000                	unimp
 48a:	0400                	addi	s0,sp,512
 48c:	0004                	0x4
 48e:	0000                	unimp
 490:	0000                	unimp
 492:	0100                	addi	s0,sp,128
 494:	5e00                	lw	s0,56(a2)
	...
 4a6:	00e4                	addi	s1,sp,76
 4a8:	0000                	unimp
 4aa:	0000                	unimp
 4ac:	0000                	unimp
 4ae:	00e8                	addi	a0,sp,76
 4b0:	0000                	unimp
 4b2:	0000                	unimp
 4b4:	0000                	unimp
 4b6:	0001                	nop
 4b8:	e85a                	sd	s6,16(sp)
 4ba:	0000                	unimp
 4bc:	0000                	unimp
 4be:	0000                	unimp
 4c0:	3000                	fld	fs0,32(s0)
 4c2:	0002                	c.slli64	zero
 4c4:	0000                	unimp
 4c6:	0000                	unimp
 4c8:	0400                	addi	s0,sp,512
 4ca:	f300                	sd	s0,32(a4)
 4cc:	5a01                	li	s4,-32
 4ce:	009f 0000 0000      	0x9f
	...
 4dc:	0000                	unimp
 4de:	1c00                	addi	s0,sp,560
 4e0:	0001                	nop
 4e2:	0000                	unimp
 4e4:	0000                	unimp
 4e6:	2400                	fld	fs0,8(s0)
 4e8:	0001                	nop
 4ea:	0000                	unimp
 4ec:	0000                	unimp
 4ee:	0100                	addi	s0,sp,128
 4f0:	5d00                	lw	s0,56(a0)
	...
 502:	0134                	addi	a3,sp,136
 504:	0000                	unimp
 506:	0000                	unimp
 508:	0000                	unimp
 50a:	0140                	addi	s0,sp,132
 50c:	0000                	unimp
 50e:	0000                	unimp
 510:	0000                	unimp
 512:	0001                	nop
 514:	005d                	c.nop	23
	...
 522:	0000                	unimp
 524:	4c00                	lw	s0,24(s0)
 526:	0001                	nop
 528:	0000                	unimp
 52a:	0000                	unimp
 52c:	5800                	lw	s0,48(s0)
 52e:	0001                	nop
 530:	0000                	unimp
 532:	0000                	unimp
 534:	0100                	addi	s0,sp,128
 536:	5d00                	lw	s0,56(a0)
	...
 548:	0164                	addi	s1,sp,140
 54a:	0000                	unimp
 54c:	0000                	unimp
 54e:	0000                	unimp
 550:	0170                	addi	a2,sp,140
 552:	0000                	unimp
 554:	0000                	unimp
 556:	0000                	unimp
 558:	0001                	nop
 55a:	005d                	c.nop	23
	...
 568:	0000                	unimp
 56a:	7c00                	ld	s0,56(s0)
 56c:	0001                	nop
 56e:	0000                	unimp
 570:	0000                	unimp
 572:	8800                	0x8800
 574:	0001                	nop
 576:	0000                	unimp
 578:	0000                	unimp
 57a:	0100                	addi	s0,sp,128
 57c:	5d00                	lw	s0,56(a0)
	...
 58e:	0194                	addi	a3,sp,192
 590:	0000                	unimp
 592:	0000                	unimp
 594:	0000                	unimp
 596:	01a0                	addi	s0,sp,200
 598:	0000                	unimp
 59a:	0000                	unimp
 59c:	0000                	unimp
 59e:	0001                	nop
 5a0:	005d                	c.nop	23
	...
 5ae:	0000                	unimp
 5b0:	ac00                	fsd	fs0,24(s0)
 5b2:	0001                	nop
 5b4:	0000                	unimp
 5b6:	0000                	unimp
 5b8:	b800                	fsd	fs0,48(s0)
 5ba:	0001                	nop
 5bc:	0000                	unimp
 5be:	0000                	unimp
 5c0:	0100                	addi	s0,sp,128
 5c2:	5d00                	lw	s0,56(a0)
	...
 5d4:	01c4                	addi	s1,sp,196
 5d6:	0000                	unimp
 5d8:	0000                	unimp
 5da:	0000                	unimp
 5dc:	01d0                	addi	a2,sp,196
 5de:	0000                	unimp
 5e0:	0000                	unimp
 5e2:	0000                	unimp
 5e4:	0001                	nop
 5e6:	005d                	c.nop	23
	...
 5f4:	0000                	unimp
 5f6:	dc00                	sw	s0,56(s0)
 5f8:	0001                	nop
 5fa:	0000                	unimp
 5fc:	0000                	unimp
 5fe:	e800                	sd	s0,16(s0)
 600:	0001                	nop
 602:	0000                	unimp
 604:	0000                	unimp
 606:	0100                	addi	s0,sp,128
 608:	5d00                	lw	s0,56(a0)
	...
 61a:	01f4                	addi	a3,sp,204
 61c:	0000                	unimp
 61e:	0000                	unimp
 620:	0000                	unimp
 622:	0200                	addi	s0,sp,256
 624:	0000                	unimp
 626:	0000                	unimp
 628:	0000                	unimp
 62a:	0001                	nop
 62c:	005d                	c.nop	23
	...
 63a:	0000                	unimp
 63c:	0c00                	addi	s0,sp,528
 63e:	0002                	c.slli64	zero
 640:	0000                	unimp
 642:	0000                	unimp
 644:	1800                	addi	s0,sp,48
 646:	0002                	c.slli64	zero
 648:	0000                	unimp
 64a:	0000                	unimp
 64c:	0100                	addi	s0,sp,128
 64e:	5d00                	lw	s0,56(a0)
	...
 660:	00b0                	addi	a2,sp,72
 662:	0000                	unimp
 664:	0000                	unimp
 666:	0000                	unimp
 668:	00b8                	addi	a4,sp,72
 66a:	0000                	unimp
 66c:	0000                	unimp
 66e:	0000                	unimp
 670:	0001                	nop
 672:	b85a                	fsd	fs6,48(sp)
 674:	0000                	unimp
 676:	0000                	unimp
 678:	0000                	unimp
 67a:	e400                	sd	s0,8(s0)
 67c:	0000                	unimp
 67e:	0000                	unimp
 680:	0000                	unimp
 682:	0400                	addi	s0,sp,512
 684:	f300                	sd	s0,32(a4)
 686:	5a01                	li	s4,-32
 688:	009f 0000 0000      	0x9f
	...
 696:	0000                	unimp
 698:	b000                	fsd	fs0,32(s0)
 69a:	0000                	unimp
 69c:	0000                	unimp
 69e:	0000                	unimp
 6a0:	e000                	sd	s0,0(s0)
 6a2:	0000                	unimp
 6a4:	0000                	unimp
 6a6:	0000                	unimp
 6a8:	0100                	addi	s0,sp,128
 6aa:	5a00                	lw	s0,48(a2)
	...
 6bc:	00b8                	addi	a4,sp,72
 6be:	0000                	unimp
 6c0:	0000                	unimp
 6c2:	0000                	unimp
 6c4:	00c4                	addi	s1,sp,68
 6c6:	0000                	unimp
 6c8:	0000                	unimp
 6ca:	0000                	unimp
 6cc:	ff090003          	lb	zero,-16(s2)
 6d0:	c49f 0000 0000      	0xc49f
 6d6:	0000                	unimp
 6d8:	cc00                	sw	s0,24(s0)
 6da:	0000                	unimp
 6dc:	0000                	unimp
 6de:	0000                	unimp
 6e0:	0100                	addi	s0,sp,128
 6e2:	5e00                	lw	s0,56(a2)
 6e4:	00d8                	addi	a4,sp,68
 6e6:	0000                	unimp
 6e8:	0000                	unimp
 6ea:	0000                	unimp
 6ec:	00dc                	addi	a5,sp,68
 6ee:	0000                	unimp
 6f0:	0000                	unimp
 6f2:	0000                	unimp
 6f4:	ff090003          	lb	zero,-16(s2)
 6f8:	009f 0000 0000      	0x9f
	...
 706:	0000                	unimp
 708:	d800                	sw	s0,48(s0)
 70a:	0000                	unimp
 70c:	0000                	unimp
 70e:	0000                	unimp
 710:	dc00                	sw	s0,56(s0)
 712:	0000                	unimp
 714:	0000                	unimp
 716:	0000                	unimp
 718:	0600                	addi	s0,sp,768
 71a:	0c00                	addi	s0,sp,528
 71c:	0004                	0x4
 71e:	6400                	ld	s0,8(s0)
 720:	009f 0000 0000      	0x9f
	...
 72e:	0000                	unimp
 730:	7400                	ld	s0,40(s0)
 732:	0000                	unimp
 734:	0000                	unimp
 736:	0000                	unimp
 738:	8000                	0x8000
 73a:	0000                	unimp
 73c:	0000                	unimp
 73e:	0000                	unimp
 740:	0100                	addi	s0,sp,128
 742:	5a00                	lw	s0,48(a2)
 744:	0080                	addi	s0,sp,64
 746:	0000                	unimp
 748:	0000                	unimp
 74a:	0000                	unimp
 74c:	00b0                	addi	a2,sp,72
 74e:	0000                	unimp
 750:	0000                	unimp
 752:	0000                	unimp
 754:	0004                	0x4
 756:	9f5a01f3          	0x9f5a01f3
	...
 76a:	0074                	addi	a3,sp,12
 76c:	0000                	unimp
 76e:	0000                	unimp
 770:	0000                	unimp
 772:	00a0                	addi	s0,sp,72
 774:	0000                	unimp
 776:	0000                	unimp
 778:	0000                	unimp
 77a:	0001                	nop
 77c:	005a                	c.slli	zero,0x16
	...
 78a:	0000                	unimp
 78c:	7800                	ld	s0,48(s0)
 78e:	0000                	unimp
 790:	0000                	unimp
 792:	0000                	unimp
 794:	9000                	0x9000
 796:	0000                	unimp
 798:	0000                	unimp
 79a:	0000                	unimp
 79c:	0100                	addi	s0,sp,128
 79e:	5e00                	lw	s0,56(a2)
 7a0:	0094                	addi	a3,sp,64
 7a2:	0000                	unimp
 7a4:	0000                	unimp
 7a6:	0000                	unimp
 7a8:	00a0                	addi	s0,sp,72
 7aa:	0000                	unimp
 7ac:	0000                	unimp
 7ae:	0000                	unimp
 7b0:	0001                	nop
 7b2:	005e                	c.slli	zero,0x17
	...
 7c0:	0000                	unimp
 7c2:	8400                	0x8400
 7c4:	0000                	unimp
 7c6:	0000                	unimp
 7c8:	0000                	unimp
 7ca:	8c00                	0x8c00
 7cc:	0000                	unimp
 7ce:	0000                	unimp
 7d0:	0000                	unimp
 7d2:	0100                	addi	s0,sp,128
 7d4:	5d00                	lw	s0,56(a0)
	...
 7e6:	003c                	addi	a5,sp,8
 7e8:	0000                	unimp
 7ea:	0000                	unimp
 7ec:	0000                	unimp
 7ee:	0058                	addi	a4,sp,4
 7f0:	0000                	unimp
 7f2:	0000                	unimp
 7f4:	0000                	unimp
 7f6:	0001                	nop
 7f8:	585a                	lw	a6,180(sp)
 7fa:	0000                	unimp
 7fc:	0000                	unimp
 7fe:	0000                	unimp
 800:	7400                	ld	s0,40(s0)
 802:	0000                	unimp
 804:	0000                	unimp
 806:	0000                	unimp
 808:	0400                	addi	s0,sp,512
 80a:	f300                	sd	s0,32(a4)
 80c:	5a01                	li	s4,-32
 80e:	009f 0000 0000      	0x9f
	...
 81c:	0000                	unimp
 81e:	3c00                	fld	fs0,56(s0)
 820:	0000                	unimp
 822:	0000                	unimp
 824:	0000                	unimp
 826:	5800                	lw	s0,48(s0)
 828:	0000                	unimp
 82a:	0000                	unimp
 82c:	0000                	unimp
 82e:	0100                	addi	s0,sp,128
 830:	5b00                	lw	s0,48(a4)
 832:	0058                	addi	a4,sp,4
 834:	0000                	unimp
 836:	0000                	unimp
 838:	0000                	unimp
 83a:	0074                	addi	a3,sp,12
 83c:	0000                	unimp
 83e:	0000                	unimp
 840:	0000                	unimp
 842:	0004                	0x4
 844:	9f5b01f3          	0x9f5b01f3
	...
 858:	0060                	addi	s0,sp,12
 85a:	0000                	unimp
 85c:	0000                	unimp
 85e:	0000                	unimp
 860:	006c                	addi	a1,sp,12
 862:	0000                	unimp
 864:	0000                	unimp
 866:	0000                	unimp
 868:	0001                	nop
 86a:	005e                	c.slli	zero,0x17
	...
 878:	0000                	unimp
 87a:	6000                	ld	s0,0(s0)
 87c:	0000                	unimp
 87e:	0000                	unimp
 880:	0000                	unimp
 882:	7000                	ld	s0,32(s0)
 884:	0000                	unimp
 886:	0000                	unimp
 888:	0000                	unimp
 88a:	0400                	addi	s0,sp,512
 88c:	4900                	lw	s0,16(a0)
 88e:	244a                	fld	fs0,144(sp)
 890:	009f 0000 0000      	0x9f
	...
 89e:	0000                	unimp
 8a0:	6400                	ld	s0,8(s0)
 8a2:	0000                	unimp
 8a4:	0000                	unimp
 8a6:	0000                	unimp
 8a8:	6c00                	ld	s0,24(s0)
 8aa:	0000                	unimp
 8ac:	0000                	unimp
 8ae:	0000                	unimp
 8b0:	0100                	addi	s0,sp,128
 8b2:	5d00                	lw	s0,56(a0)
	...
 8cc:	001c                	0x1c
 8ce:	0000                	unimp
 8d0:	0000                	unimp
 8d2:	0000                	unimp
 8d4:	0001                	nop
 8d6:	1c5a                	slli	s8,s8,0x36
 8d8:	0000                	unimp
 8da:	0000                	unimp
 8dc:	0000                	unimp
 8de:	3c00                	fld	fs0,56(s0)
 8e0:	0000                	unimp
 8e2:	0000                	unimp
 8e4:	0000                	unimp
 8e6:	0400                	addi	s0,sp,512
 8e8:	f300                	sd	s0,32(a4)
 8ea:	5a01                	li	s4,-32
 8ec:	009f 0000 0000      	0x9f
	...
 902:	0000                	unimp
 904:	1c00                	addi	s0,sp,560
 906:	0000                	unimp
 908:	0000                	unimp
 90a:	0000                	unimp
 90c:	0100                	addi	s0,sp,128
 90e:	5b00                	lw	s0,48(a4)
 910:	001c                	0x1c
 912:	0000                	unimp
 914:	0000                	unimp
 916:	0000                	unimp
 918:	003c                	addi	a5,sp,8
 91a:	0000                	unimp
 91c:	0000                	unimp
 91e:	0000                	unimp
 920:	0004                	0x4
 922:	9f5b01f3          	0x9f5b01f3
	...
 936:	0020                	addi	s0,sp,8
 938:	0000                	unimp
 93a:	0000                	unimp
 93c:	0000                	unimp
 93e:	002c                	addi	a1,sp,8
 940:	0000                	unimp
 942:	0000                	unimp
 944:	0000                	unimp
 946:	ff090003          	lb	zero,-16(s2)
 94a:	2c9f 0000 0000      	0x2c9f
 950:	0000                	unimp
 952:	3000                	fld	fs0,32(s0)
 954:	0000                	unimp
 956:	0000                	unimp
 958:	0000                	unimp
 95a:	0100                	addi	s0,sp,128
 95c:	5e00                	lw	s0,56(a2)
	...
 96e:	0020                	addi	s0,sp,8
 970:	0000                	unimp
 972:	0000                	unimp
 974:	0000                	unimp
 976:	0038                	addi	a4,sp,8
 978:	0000                	unimp
 97a:	0000                	unimp
 97c:	0000                	unimp
 97e:	0006                	c.slli	zero,0x1
 980:	040c                	addi	a1,sp,512
 982:	0000                	unimp
 984:	9f64                	0x9f64
	...
